ARM GAS  C:\Users\saman\AppData\Local\Temp\ccdI31Nd.s 			page 1


   1              		.syntax unified
   2              		.cpu cortex-m3
   3              		.fpu softvfp
   4              		.eabi_attribute 20, 1
   5              		.eabi_attribute 21, 1
   6              		.eabi_attribute 23, 3
   7              		.eabi_attribute 24, 1
   8              		.eabi_attribute 25, 1
   9              		.eabi_attribute 26, 1
  10              		.eabi_attribute 30, 1
  11              		.eabi_attribute 34, 1
  12              		.eabi_attribute 18, 4
  13              		.thumb
  14              		.syntax unified
  15              		.file	"joystick.c"
  16              		.text
  17              	.Ltext0:
  18              		.cfi_sections	.debug_frame
  19              		.section	.text.JOYSTICK_Init,"ax",%progbits
  20              		.align	2
  21              		.global	JOYSTICK_Init
  22              		.thumb
  23              		.thumb_func
  24              		.type	JOYSTICK_Init, %function
  25              	JOYSTICK_Init:
  26              	.LFB110:
  27              		.file 1 "source\\bsw\\joystick.c"
   1:source\bsw/joystick.c **** /**
   2:source\bsw/joystick.c **** * \file joystick.c
   3:source\bsw/joystick.c **** * \author P. Fromm
   4:source\bsw/joystick.c **** * \date 29.8.17
   5:source\bsw/joystick.c **** *
   6:source\bsw/joystick.c **** * \brief Joystick driver
   7:source\bsw/joystick.c **** *
   8:source\bsw/joystick.c **** * \copyright Copyright ©2016
   9:source\bsw/joystick.c **** * Department of electrical engineering and information technology, Hochschule Darmstadt - Universit
  10:source\bsw/joystick.c **** * Permission to use, copy, modify, and distribute this software and its documentation for education
  11:source\bsw/joystick.c **** * (unless permitted by h_da) and official h_da projects, is hereby granted for enrolled students of
  12:source\bsw/joystick.c **** * this paragraph and the following paragraph appear in all copies, modifications, and distributions
  13:source\bsw/joystick.c **** * Contact Prof.Dr.-Ing. Peter Fromm, peter.fromm@h-da.de, Birkenweg 8 64295 Darmstadt - GERMANY for
  14:source\bsw/joystick.c **** *
  15:source\bsw/joystick.c **** * \warning This software is a PROTOTYPE version and is not designed or intended for use in producti
  16:source\bsw/joystick.c **** * The user represents and warrants that it will NOT use or redistribute the Software for such purpo
  17:source\bsw/joystick.c **** * This prototype is for research purposes only. This software is provided "AS IS," without a warran
  18:source\bsw/joystick.c **** */
  19:source\bsw/joystick.c **** 
  20:source\bsw/joystick.c **** /*****************************************************************************/
  21:source\bsw/joystick.c **** /* Include files                                                             */
  22:source\bsw/joystick.c **** /*****************************************************************************/
  23:source\bsw/joystick.c **** 
  24:source\bsw/joystick.c **** #include "project.h"
  25:source\bsw/joystick.c **** #include "joystick.h"
  26:source\bsw/joystick.c **** 
  27:source\bsw/joystick.c **** 
  28:source\bsw/joystick.c **** 
  29:source\bsw/joystick.c **** /*****************************************************************************/
  30:source\bsw/joystick.c **** /* Local pre-processor symbols/macros ('#define')                            */
ARM GAS  C:\Users\saman\AppData\Local\Temp\ccdI31Nd.s 			page 2


  31:source\bsw/joystick.c **** /*****************************************************************************/
  32:source\bsw/joystick.c **** #define CENTER_POSX 1950  // Actual measured center value for posX
  33:source\bsw/joystick.c **** #define CENTER_POSY 1927  // Actual measured center value for posY
  34:source\bsw/joystick.c **** /*****************************************************************************/
  35:source\bsw/joystick.c **** /* Global variable definitions (declared in header file with 'extern')       */
  36:source\bsw/joystick.c **** /*****************************************************************************/
  37:source\bsw/joystick.c **** 
  38:source\bsw/joystick.c **** /*****************************************************************************/
  39:source\bsw/joystick.c **** /* Local type definitions ('typedef')                                        */
  40:source\bsw/joystick.c **** /*****************************************************************************/
  41:source\bsw/joystick.c **** 
  42:source\bsw/joystick.c **** /*****************************************************************************/
  43:source\bsw/joystick.c **** /* Local variable definitions ('static')                                     */
  44:source\bsw/joystick.c **** /*****************************************************************************/
  45:source\bsw/joystick.c **** 
  46:source\bsw/joystick.c **** 
  47:source\bsw/joystick.c **** 
  48:source\bsw/joystick.c **** /*****************************************************************************/
  49:source\bsw/joystick.c **** /* Local function prototypes ('static')                                      */
  50:source\bsw/joystick.c **** /*****************************************************************************/
  51:source\bsw/joystick.c **** 
  52:source\bsw/joystick.c **** 
  53:source\bsw/joystick.c **** /*****************************************************************************/
  54:source\bsw/joystick.c **** /* Function implementation - global ('extern') and local ('static')          */
  55:source\bsw/joystick.c **** /*****************************************************************************/
  56:source\bsw/joystick.c **** 
  57:source\bsw/joystick.c **** /**
  58:source\bsw/joystick.c ****  * Initialisation of the Joystick
  59:source\bsw/joystick.c ****  * @return RC_SUCCESS if all ok
  60:source\bsw/joystick.c ****  */
  61:source\bsw/joystick.c **** RC_t JOYSTICK_Init()
  62:source\bsw/joystick.c **** {
  28              		.loc 1 62 0
  29              		.cfi_startproc
  30              		@ args = 0, pretend = 0, frame = 0
  31              		@ frame_needed = 0, uses_anonymous_args = 0
  32 0000 08B5     		push	{r3, lr}
  33              		.cfi_def_cfa_offset 8
  34              		.cfi_offset 3, -8
  35              		.cfi_offset 14, -4
  63:source\bsw/joystick.c ****     
  64:source\bsw/joystick.c ****     JOYSTICK_ADC_XY_Start();
  36              		.loc 1 64 0
  37 0002 FFF7FEFF 		bl	JOYSTICK_ADC_XY_Start
  38              	.LVL0:
  65:source\bsw/joystick.c ****     //JOYSTICK_ADC_X_IRQ_Enable(); //May be activated later
  66:source\bsw/joystick.c ****     JOYSTICK_ADC_XY_StartConvert();
  39              		.loc 1 66 0
  40 0006 FFF7FEFF 		bl	JOYSTICK_ADC_XY_StartConvert
  41              	.LVL1:
  67:source\bsw/joystick.c ****     
  68:source\bsw/joystick.c ****     return RC_SUCCESS;
  69:source\bsw/joystick.c **** }
  42              		.loc 1 69 0
  43 000a 0020     		movs	r0, #0
  44 000c 08BD     		pop	{r3, pc}
  45              		.cfi_endproc
ARM GAS  C:\Users\saman\AppData\Local\Temp\ccdI31Nd.s 			page 3


  46              	.LFE110:
  47              		.size	JOYSTICK_Init, .-JOYSTICK_Init
  48 000e 00BF     		.section	.text.JOYSTICK_ReadPosition,"ax",%progbits
  49              		.align	2
  50              		.global	JOYSTICK_ReadPosition
  51              		.thumb
  52              		.thumb_func
  53              		.type	JOYSTICK_ReadPosition, %function
  54              	JOYSTICK_ReadPosition:
  55              	.LFB111:
  70:source\bsw/joystick.c **** 
  71:source\bsw/joystick.c **** /**
  72:source\bsw/joystick.c ****  * Read the Joystick position
  73:source\bsw/joystick.c ****  * @param sint8_t* x, sint8_t* y - OUT x and y position
  74:source\bsw/joystick.c ****  * @return RC_SUCCESS if all ok
  75:source\bsw/joystick.c ****  */
  76:source\bsw/joystick.c **** RC_t JOYSTICK_ReadPosition(sint8_t* x, sint8_t* y)
  77:source\bsw/joystick.c **** {
  56              		.loc 1 77 0
  57              		.cfi_startproc
  58              		@ args = 0, pretend = 0, frame = 0
  59              		@ frame_needed = 0, uses_anonymous_args = 0
  60              	.LVL2:
  61 0000 70B5     		push	{r4, r5, r6, lr}
  62              		.cfi_def_cfa_offset 16
  63              		.cfi_offset 4, -16
  64              		.cfi_offset 5, -12
  65              		.cfi_offset 6, -8
  66              		.cfi_offset 14, -4
  67 0002 0646     		mov	r6, r0
  68 0004 0D46     		mov	r5, r1
  78:source\bsw/joystick.c ****     //Wait for end of conversion
  79:source\bsw/joystick.c ****     JOYSTICK_ADC_XY_IsEndConversion(JOYSTICK_ADC_XY_WAIT_FOR_RESULT);
  69              		.loc 1 79 0
  70 0006 0020     		movs	r0, #0
  71              	.LVL3:
  72 0008 FFF7FEFF 		bl	JOYSTICK_ADC_XY_IsEndConversion
  73              	.LVL4:
  80:source\bsw/joystick.c **** 
  81:source\bsw/joystick.c ****     //Read channels
  82:source\bsw/joystick.c ****     uint16_t posX = JOYSTICK_ADC_XY_GetResult16(0);
  74              		.loc 1 82 0
  75 000c 0020     		movs	r0, #0
  76 000e FFF7FEFF 		bl	JOYSTICK_ADC_XY_GetResult16
  77              	.LVL5:
  78 0012 84B2     		uxth	r4, r0
  79              	.LVL6:
  83:source\bsw/joystick.c ****     uint16_t posY = JOYSTICK_ADC_XY_GetResult16(1);
  80              		.loc 1 83 0
  81 0014 0120     		movs	r0, #1
  82 0016 FFF7FEFF 		bl	JOYSTICK_ADC_XY_GetResult16
  83              	.LVL7:
  84 001a 80B2     		uxth	r0, r0
  85              	.LVL8:
  84:source\bsw/joystick.c ****     
  85:source\bsw/joystick.c ****    // Calculate temporary values
  86:source\bsw/joystick.c ****     int tempX = (CENTER_POSX - posX) / 16;
ARM GAS  C:\Users\saman\AppData\Local\Temp\ccdI31Nd.s 			page 4


  86              		.loc 1 86 0
  87 001c C4F5F363 		rsb	r3, r4, #1944
  88 0020 0633     		adds	r3, r3, #6
  89 0022 002B     		cmp	r3, #0
  90 0024 00DA     		bge	.L4
  91 0026 0F33     		adds	r3, r3, #15
  92              	.L4:
  93 0028 1B11     		asrs	r3, r3, #4
  94              	.LVL9:
  87:source\bsw/joystick.c ****     int tempY = (CENTER_POSY - posY) / 16;
  95              		.loc 1 87 0
  96 002a C0F5F060 		rsb	r0, r0, #1920
  97              	.LVL10:
  98 002e 0730     		adds	r0, r0, #7
  99 0030 0028     		cmp	r0, #0
 100 0032 00DA     		bge	.L5
 101 0034 0F30     		adds	r0, r0, #15
 102              	.L5:
 103 0036 0011     		asrs	r0, r0, #4
 104              	.LVL11:
  88:source\bsw/joystick.c **** 
  89:source\bsw/joystick.c ****     // Clamp values to fit in sint8_t range (-128 to 127)
  90:source\bsw/joystick.c ****     if (tempX < -128) tempX = -128;
 105              		.loc 1 90 0
 106 0038 13F1800F 		cmn	r3, #128
 107 003c 02DB     		blt	.L8
  91:source\bsw/joystick.c ****     else if (tempX > 127) tempX = 127;
 108              		.loc 1 91 0
 109 003e 7F2B     		cmp	r3, #127
 110 0040 03DC     		bgt	.L9
 111 0042 03E0     		b	.L6
 112              	.L8:
  90:source\bsw/joystick.c ****     else if (tempX > 127) tempX = 127;
 113              		.loc 1 90 0
 114 0044 6FF07F03 		mvn	r3, #127
 115              	.LVL12:
 116 0048 00E0     		b	.L6
 117              	.LVL13:
 118              	.L9:
 119              		.loc 1 91 0
 120 004a 7F23     		movs	r3, #127
 121              	.LVL14:
 122              	.L6:
  92:source\bsw/joystick.c **** 
  93:source\bsw/joystick.c ****     if (tempY < -128) tempY = -128;
 123              		.loc 1 93 0
 124 004c 10F1800F 		cmn	r0, #128
 125 0050 02DB     		blt	.L10
  94:source\bsw/joystick.c ****     else if (tempY > 127) tempY = 127;
 126              		.loc 1 94 0
 127 0052 7F28     		cmp	r0, #127
 128 0054 03DC     		bgt	.L11
 129 0056 03E0     		b	.L7
 130              	.L10:
  93:source\bsw/joystick.c ****     else if (tempY > 127) tempY = 127;
 131              		.loc 1 93 0
 132 0058 6FF07F00 		mvn	r0, #127
ARM GAS  C:\Users\saman\AppData\Local\Temp\ccdI31Nd.s 			page 5


 133              	.LVL15:
 134 005c 00E0     		b	.L7
 135              	.LVL16:
 136              	.L11:
 137              		.loc 1 94 0
 138 005e 7F20     		movs	r0, #127
 139              	.LVL17:
 140              	.L7:
  95:source\bsw/joystick.c **** 
  96:source\bsw/joystick.c ****     // Convert to scaled 8-bit signal
  97:source\bsw/joystick.c ****     *x = (sint8_t)tempX;
 141              		.loc 1 97 0
 142 0060 3370     		strb	r3, [r6]
  98:source\bsw/joystick.c ****     *y = (sint8_t)tempY;
 143              		.loc 1 98 0
 144 0062 2870     		strb	r0, [r5]
  99:source\bsw/joystick.c ****     
 100:source\bsw/joystick.c ****     return RC_SUCCESS;
 101:source\bsw/joystick.c **** }
 145              		.loc 1 101 0
 146 0064 0020     		movs	r0, #0
 147              	.LVL18:
 148 0066 70BD     		pop	{r4, r5, r6, pc}
 149              		.cfi_endproc
 150              	.LFE111:
 151              		.size	JOYSTICK_ReadPosition, .-JOYSTICK_ReadPosition
 152              		.text
 153              	.Letext0:
 154              		.file 2 "c:\\program files (x86)\\cypress\\psoc creator\\4.4\\psoc creator\\import\\gnu\\arm\\5.4.
 155              		.file 3 "c:\\program files (x86)\\cypress\\psoc creator\\4.4\\psoc creator\\import\\gnu\\arm\\5.4.
 156              		.file 4 "Generated_Source\\PSoC5/ErikaOS_1_common_ee_types.inc"
 157              		.file 5 "Generated_Source\\PSoC5/ErikaOS_1_cortex_mx_ee_cpu.inc"
 158              		.file 6 "source\\bsw\\global.h"
 159              		.file 7 "Generated_Source\\PSoC5/ErikaOS_1_ee_oo_intfunc.inc"
 160              		.file 8 "Generated_Source\\PSoC5/ErikaOS_1_cortex_mx_ee_context.inc"
 161              		.file 9 "Generated_Source\\PSoC5/ErikaOS_1_common_ee_primitives.inc"
 162              		.file 10 "Generated_Source\\PSoC5/core_cm3.h"
 163              		.file 11 "Generated_Source\\PSoC5/JOYSTICK_ADC_XY.h"