ARM GAS  C:\Users\saman\AppData\Local\Temp\cczjKMab.s 			page 1


   1              		.syntax unified
   2              		.cpu cortex-m3
   3              		.fpu softvfp
   4              		.eabi_attribute 20, 1
   5              		.eabi_attribute 21, 1
   6              		.eabi_attribute 23, 3
   7              		.eabi_attribute 24, 1
   8              		.eabi_attribute 25, 1
   9              		.eabi_attribute 26, 1
  10              		.eabi_attribute 30, 1
  11              		.eabi_attribute 34, 1
  12              		.eabi_attribute 18, 4
  13              		.thumb
  14              		.syntax unified
  15              		.file	"swc_brakelight.c"
  16              		.text
  17              	.Ltext0:
  18              		.cfi_sections	.debug_frame
  19              		.section	.text.BRAKELIGHT_set_brakelight_run,"ax",%progbits
  20              		.align	2
  21              		.global	BRAKELIGHT_set_brakelight_run
  22              		.thumb
  23              		.thumb_func
  24              		.type	BRAKELIGHT_set_brakelight_run, %function
  25              	BRAKELIGHT_set_brakelight_run:
  26              	.LFB154:
  27              		.file 1 "source\\asw\\swc_brakelight.c"
   1:source\asw/swc_brakelight.c **** /*
   2:source\asw/swc_brakelight.c ****  * Filename: swc_brakelight.c
   3:source\asw/swc_brakelight.c ****  *
   4:source\asw/swc_brakelight.c ****  * Author: Autogenerated by H-DA RTE Generator, (c) Prof. Fromm
   5:source\asw/swc_brakelight.c ****  *
   6:source\asw/swc_brakelight.c ****  * description: SWC for brakelight
   7:source\asw/swc_brakelight.c ****  * name: swc_brakelight
   8:source\asw/swc_brakelight.c ****  * shortname: brakelight
   9:source\asw/swc_brakelight.c ****  *
  10:source\asw/swc_brakelight.c ****  */
  11:source\asw/swc_brakelight.c **** 
  12:source\asw/swc_brakelight.c **** #include "project.h"
  13:source\asw/swc_brakelight.c **** #include "global.h"
  14:source\asw/swc_brakelight.c **** #include "rte.h"
  15:source\asw/swc_brakelight.c **** #include "rte_types.h"
  16:source\asw/swc_brakelight.c **** #include "swc_brakelight.h"
  17:source\asw/swc_brakelight.c **** 
  18:source\asw/swc_brakelight.c **** 
  19:source\asw/swc_brakelight.c **** 
  20:source\asw/swc_brakelight.c **** /* USER CODE START SWC_BRAKELIGHT_INCLUDE */
  21:source\asw/swc_brakelight.c **** 
  22:source\asw/swc_brakelight.c **** /* USER CODE END SWC_BRAKELIGHT_INCLUDE */
  23:source\asw/swc_brakelight.c **** 
  24:source\asw/swc_brakelight.c **** 
  25:source\asw/swc_brakelight.c **** #include "sp_common.h"
  26:source\asw/swc_brakelight.c **** 
  27:source\asw/swc_brakelight.c **** /* USER CODE START SWC_BRAKELIGHT_USERDEFINITIONS */
  28:source\asw/swc_brakelight.c **** 
  29:source\asw/swc_brakelight.c **** /* USER CODE END SWC_BRAKELIGHT_USERDEFINITIONS */
  30:source\asw/swc_brakelight.c **** 
ARM GAS  C:\Users\saman\AppData\Local\Temp\cczjKMab.s 			page 2


  31:source\asw/swc_brakelight.c **** 
  32:source\asw/swc_brakelight.c **** 
  33:source\asw/swc_brakelight.c **** /*
  34:source\asw/swc_brakelight.c ****  * component: swc_brakelight
  35:source\asw/swc_brakelight.c ****  * cycletime: 0
  36:source\asw/swc_brakelight.c ****  * description: Runnable to set brakelight if speed signal is 0
  37:source\asw/swc_brakelight.c ****  * events: ev_on_speed_update
  38:source\asw/swc_brakelight.c ****  * name: BRAKELIGHT_set_brakelight_run
  39:source\asw/swc_brakelight.c ****  * shortname: set_brakelight
  40:source\asw/swc_brakelight.c ****  * signalIN: so_speed
  41:source\asw/swc_brakelight.c ****  * signalOUT: so_brakelight
  42:source\asw/swc_brakelight.c ****  * task: tsk_io
  43:source\asw/swc_brakelight.c ****  */
  44:source\asw/swc_brakelight.c **** void BRAKELIGHT_set_brakelight_run(RTE_event ev){
  28              		.loc 1 44 0
  29              		.cfi_startproc
  30              		@ args = 0, pretend = 0, frame = 0
  31              		@ frame_needed = 0, uses_anonymous_args = 0
  32              	.LVL0:
  33 0000 38B5     		push	{r3, r4, r5, lr}
  34              		.cfi_def_cfa_offset 16
  35              		.cfi_offset 3, -16
  36              		.cfi_offset 4, -12
  37              		.cfi_offset 5, -8
  38              		.cfi_offset 14, -4
  45:source\asw/swc_brakelight.c **** 	
  46:source\asw/swc_brakelight.c **** 	/* USER CODE START BRAKELIGHT_set_brakelight_run */
  47:source\asw/swc_brakelight.c **** 
  48:source\asw/swc_brakelight.c ****     SC_SPEED_data_t speed = SC_SPEED_INIT_DATA;
  39              		.loc 1 48 0
  40 0002 4FF00003 		mov	r3, #0
  41              	.LVL1:
  42              	.LBB11:
  43              	.LBB12:
  44              		.file 2 ".\\source\\rte/sc_speed.h"
   1:.\source\rte/sc_speed.h **** 
   2:.\source\rte/sc_speed.h **** 
   3:.\source\rte/sc_speed.h **** /**
   4:.\source\rte/sc_speed.h ****  *  file    SC_SPEED_signal.h
   5:.\source\rte/sc_speed.h ****  *
   6:.\source\rte/sc_speed.h ****  *  brief   signal base class for signal sc_speed
   7:.\source\rte/sc_speed.h ****  *
   8:.\source\rte/sc_speed.h ****  *  author  Autogenerated, Peter Fromm       <peter.fromm@h-da.de>
   9:.\source\rte/sc_speed.h ****  *
  10:.\source\rte/sc_speed.h ****  * description: Signalclass representing speed
  11:.\source\rte/sc_speed.h ****  * name: sc_speed
  12:.\source\rte/sc_speed.h ****  * shortname: speed
  13:.\source\rte/sc_speed.h ****  *
  14:.\source\rte/sc_speed.h ****  */
  15:.\source\rte/sc_speed.h **** 
  16:.\source\rte/sc_speed.h **** 
  17:.\source\rte/sc_speed.h **** 
  18:.\source\rte/sc_speed.h **** #ifndef SC_SPEED_SIGNAL_H_INCLUDED
  19:.\source\rte/sc_speed.h **** #define SC_SPEED_SIGNAL_H_INCLUDED
  20:.\source\rte/sc_speed.h **** 
  21:.\source\rte/sc_speed.h **** /*================================================[ public includes  ]=============================
  22:.\source\rte/sc_speed.h **** #include "global.h"
ARM GAS  C:\Users\saman\AppData\Local\Temp\cczjKMab.s 			page 3


  23:.\source\rte/sc_speed.h **** #include "project.h"
  24:.\source\rte/sc_speed.h **** #include "rte.h"
  25:.\source\rte/sc_speed.h **** #include "rte_types.h"
  26:.\source\rte/sc_speed.h **** 
  27:.\source\rte/sc_speed.h **** #include "sc_speed_type.h"
  28:.\source\rte/sc_speed.h **** 
  29:.\source\rte/sc_speed.h **** 
  30:.\source\rte/sc_speed.h **** /**************************************************************************************************
  31:.\source\rte/sc_speed.h **** /* The driver API block																						*/
  32:.\source\rte/sc_speed.h **** /**************************************************************************************************
  33:.\source\rte/sc_speed.h ****                                                                                                    
  34:.\source\rte/sc_speed.h **** /**
  35:.\source\rte/sc_speed.h ****  *  Definition of function types for driver interfaces.
  36:.\source\rte/sc_speed.h ****  *  I-Port
  37:.\source\rte/sc_speed.h ****  */
  38:.\source\rte/sc_speed.h **** typedef RC_t (*SC_SPEED_driverIn_t)(SC_SPEED_data_t * const);
  39:.\source\rte/sc_speed.h **** 
  40:.\source\rte/sc_speed.h **** /**
  41:.\source\rte/sc_speed.h ****  *  Definition of function types for driver interfaces.
  42:.\source\rte/sc_speed.h ****  *  O-Port
  43:.\source\rte/sc_speed.h ****  */
  44:.\source\rte/sc_speed.h **** typedef RC_t (*SC_SPEED_driverOut_t)( const SC_SPEED_data_t * const);
  45:.\source\rte/sc_speed.h **** 
  46:.\source\rte/sc_speed.h **** 
  47:.\source\rte/sc_speed.h **** /**************************************************************************************************
  48:.\source\rte/sc_speed.h **** /* The signal configuration API block																				*/
  49:.\source\rte/sc_speed.h **** /**************************************************************************************************
  50:.\source\rte/sc_speed.h **** 
  51:.\source\rte/sc_speed.h **** /**
  52:.\source\rte/sc_speed.h ****  * Instances of the struct SC_SPEED_cfg_t represent the signal object configuration.
  53:.\source\rte/sc_speed.h ****  */
  54:.\source\rte/sc_speed.h **** struct SC_SPEED_cfg_s
  55:.\source\rte/sc_speed.h **** {
  56:.\source\rte/sc_speed.h ****     /**
  57:.\source\rte/sc_speed.h ****      * Function pointer to the input driver
  58:.\source\rte/sc_speed.h ****      */
  59:.\source\rte/sc_speed.h ****     SC_SPEED_driverIn_t const inDriver;
  60:.\source\rte/sc_speed.h **** 
  61:.\source\rte/sc_speed.h ****     /**
  62:.\source\rte/sc_speed.h ****      * Function pointer to the output driver table
  63:.\source\rte/sc_speed.h ****      */
  64:.\source\rte/sc_speed.h ****    SC_SPEED_driverOut_t const outDriver;
  65:.\source\rte/sc_speed.h ****    
  66:.\source\rte/sc_speed.h ****     /**
  67:.\source\rte/sc_speed.h ****      * Event onUpdate
  68:.\source\rte/sc_speed.h ****      */
  69:.\source\rte/sc_speed.h ****     EventMaskType const evOnUpdate;
  70:.\source\rte/sc_speed.h ****     
  71:.\source\rte/sc_speed.h ****     
  72:.\source\rte/sc_speed.h ****     /**
  73:.\source\rte/sc_speed.h ****      * Event onError
  74:.\source\rte/sc_speed.h ****      */
  75:.\source\rte/sc_speed.h ****     EventMaskType const evOnError;
  76:.\source\rte/sc_speed.h ****     
  77:.\source\rte/sc_speed.h ****     /**
  78:.\source\rte/sc_speed.h ****      * Task Count onUpdate
  79:.\source\rte/sc_speed.h ****      */
ARM GAS  C:\Users\saman\AppData\Local\Temp\cczjKMab.s 			page 4


  80:.\source\rte/sc_speed.h ****     size_t const onUpdateTaskCount;
  81:.\source\rte/sc_speed.h **** 
  82:.\source\rte/sc_speed.h ****     /**
  83:.\source\rte/sc_speed.h ****      * Task List onUpdate
  84:.\source\rte/sc_speed.h ****      */
  85:.\source\rte/sc_speed.h ****     TaskTypeArray* const onUpdateTasks;
  86:.\source\rte/sc_speed.h ****     
  87:.\source\rte/sc_speed.h ****     /**
  88:.\source\rte/sc_speed.h ****      * Task Count onError
  89:.\source\rte/sc_speed.h ****      */
  90:.\source\rte/sc_speed.h ****     size_t const onErrorTaskCount;
  91:.\source\rte/sc_speed.h **** 
  92:.\source\rte/sc_speed.h ****     /**
  93:.\source\rte/sc_speed.h ****      * Task List onError
  94:.\source\rte/sc_speed.h ****      */
  95:.\source\rte/sc_speed.h ****     TaskTypeArray* const onErrorTasks;
  96:.\source\rte/sc_speed.h **** 	
  97:.\source\rte/sc_speed.h **** 	
  98:.\source\rte/sc_speed.h **** 	/**
  99:.\source\rte/sc_speed.h **** 	 * Ressourse is active? We need an additional boolean as a ressource value 0 is valid.
 100:.\source\rte/sc_speed.h **** 	 */
 101:.\source\rte/sc_speed.h **** 	 boolean_t const resourceActive;
 102:.\source\rte/sc_speed.h **** 	 
 103:.\source\rte/sc_speed.h **** 	/**
 104:.\source\rte/sc_speed.h **** 	 * Ressourse 
 105:.\source\rte/sc_speed.h **** 	 */
 106:.\source\rte/sc_speed.h **** 	 ResourceType const resource;
 107:.\source\rte/sc_speed.h **** 
 108:.\source\rte/sc_speed.h **** };                                                                                                 
 109:.\source\rte/sc_speed.h **** typedef const struct SC_SPEED_cfg_s SC_SPEED_cfg_t;
 110:.\source\rte/sc_speed.h ****                               
 111:.\source\rte/sc_speed.h **** /**************************************************************************************************
 112:.\source\rte/sc_speed.h **** /* The data interface block																							*/
 113:.\source\rte/sc_speed.h **** /**************************************************************************************************
 114:.\source\rte/sc_speed.h **** 
 115:.\source\rte/sc_speed.h ****                                                                                                    
 116:.\source\rte/sc_speed.h **** 							  
 117:.\source\rte/sc_speed.h **** /**
 118:.\source\rte/sc_speed.h ****  * Instances of the struct SC_SPEED_t represent the signal objects.
 119:.\source\rte/sc_speed.h ****  * A signal object contains the current application value 'value' as well as relevant meta data.
 120:.\source\rte/sc_speed.h ****  */
 121:.\source\rte/sc_speed.h **** struct SC_SPEED_s
 122:.\source\rte/sc_speed.h **** {                                                                                                  
 123:.\source\rte/sc_speed.h **** 
 124:.\source\rte/sc_speed.h **** 	/**
 125:.\source\rte/sc_speed.h **** 	 * Data buffer for the application value
 126:.\source\rte/sc_speed.h **** 	 */
 127:.\source\rte/sc_speed.h ****     SC_SPEED_data_t value;
 128:.\source\rte/sc_speed.h **** 
 129:.\source\rte/sc_speed.h ****     /**
 130:.\source\rte/sc_speed.h ****      * Current signal status
 131:.\source\rte/sc_speed.h ****      */
 132:.\source\rte/sc_speed.h ****     RTE_signalStatus_t status;
 133:.\source\rte/sc_speed.h **** 
 134:.\source\rte/sc_speed.h ****     /**
 135:.\source\rte/sc_speed.h ****      * Current age of the signal (in calling cycles)
 136:.\source\rte/sc_speed.h ****      */
ARM GAS  C:\Users\saman\AppData\Local\Temp\cczjKMab.s 			page 5


 137:.\source\rte/sc_speed.h ****     uint32_t age;
 138:.\source\rte/sc_speed.h **** 
 139:.\source\rte/sc_speed.h ****     /**
 140:.\source\rte/sc_speed.h ****      * Pointer to the signal configuration
 141:.\source\rte/sc_speed.h ****      */
 142:.\source\rte/sc_speed.h **** 	const SC_SPEED_cfg_t * const    pSigCfg;
 143:.\source\rte/sc_speed.h **** 
 144:.\source\rte/sc_speed.h **** };                                                                                                 
 145:.\source\rte/sc_speed.h **** typedef struct SC_SPEED_s SC_SPEED_t;
 146:.\source\rte/sc_speed.h **** 
 147:.\source\rte/sc_speed.h **** /**************************************************************************************************
 148:.\source\rte/sc_speed.h **** /* Signal initialisation   																							*/
 149:.\source\rte/sc_speed.h **** /**************************************************************************************************
 150:.\source\rte/sc_speed.h **** 
 151:.\source\rte/sc_speed.h **** /**
 152:.\source\rte/sc_speed.h ****  * Initializes a signal instance with a passed init value.
 153:.\source\rte/sc_speed.h ****  * Depending on the configured conversion or scaling function the raw_value will be calculated.
 154:.\source\rte/sc_speed.h ****  * Signal status will change from RTE_SIGNALSTATUS_STARTUP to RTE_SIGNALSTATUS_INITIALIZED.
 155:.\source\rte/sc_speed.h ****  *
 156:.\source\rte/sc_speed.h ****  * @param  SC_SPEED_t * const signal: Pointer to the signal object which will be initialised
 157:.\source\rte/sc_speed.h ****  * @return RC_t: standard return code, currently only RC_SUCCESS
 158:.\source\rte/sc_speed.h ****  *
 159:.\source\rte/sc_speed.h ****  **/
 160:.\source\rte/sc_speed.h **** inline RC_t RTE_SC_SPEED_init( SC_SPEED_t * const signal )
 161:.\source\rte/sc_speed.h **** {                                                                                                  
 162:.\source\rte/sc_speed.h **** 
 163:.\source\rte/sc_speed.h ****    RC_t ret = RC_SUCCESS;
 164:.\source\rte/sc_speed.h **** 
 165:.\source\rte/sc_speed.h ****    //Set value and raw value
 166:.\source\rte/sc_speed.h ****    signal->value  = SC_SPEED_INIT_DATA;
 167:.\source\rte/sc_speed.h ****    signal->age    = 0;
 168:.\source\rte/sc_speed.h ****    signal->status = RTE_SIGNALSTATUS_INITIALIZED;
 169:.\source\rte/sc_speed.h **** 
 170:.\source\rte/sc_speed.h ****    return ret;
 171:.\source\rte/sc_speed.h **** }
 172:.\source\rte/sc_speed.h **** 
 173:.\source\rte/sc_speed.h **** /**************************************************************************************************
 174:.\source\rte/sc_speed.h **** /* Status and timeout control																						*/
 175:.\source\rte/sc_speed.h **** /**************************************************************************************************
 176:.\source\rte/sc_speed.h **** 
 177:.\source\rte/sc_speed.h **** /**
 178:.\source\rte/sc_speed.h ****  *  Returns the current signal status of the passed signal instance.
 179:.\source\rte/sc_speed.h ****  *
 180:.\source\rte/sc_speed.h ****  * @param  SC_SPEED_t * const signal: Pointer to the signal object
 181:.\source\rte/sc_speed.h ****  * @return  sig_status_t: The current signal status
 182:.\source\rte/sc_speed.h ****  *
 183:.\source\rte/sc_speed.h ****  **/
 184:.\source\rte/sc_speed.h **** inline RTE_signalStatus_t RTE_SC_SPEED_getStatus( const SC_SPEED_t * const signal )
 185:.\source\rte/sc_speed.h **** {
 186:.\source\rte/sc_speed.h ****    return signal->status;
  45              		.loc 2 186 0
  46 0006 184A     		ldr	r2, .L10
  47 0008 5278     		ldrb	r2, [r2, #1]	@ zero_extendqisi2
  48              	.LVL2:
  49              	.LBE12:
  50              	.LBE11:
  49:source\asw/swc_brakelight.c ****     if(RTE_SC_SPEED_getStatus(&SO_SPEED_signal) == RTE_SIGNALSTATUS_VALID)
ARM GAS  C:\Users\saman\AppData\Local\Temp\cczjKMab.s 			page 6


  51              		.loc 1 49 0
  52 000a 022A     		cmp	r2, #2
  53 000c 01D1     		bne	.L2
  54              	.LVL3:
  55 000e 164B     		ldr	r3, .L10
  56 0010 1B78     		ldrb	r3, [r3]	@ zero_extendqisi2
  57              	.LVL4:
  58              	.L2:
  50:source\asw/swc_brakelight.c ****     {
  51:source\asw/swc_brakelight.c ****         speed = RTE_SC_SPEED_get(&SO_SPEED_signal);
  52:source\asw/swc_brakelight.c ****     }    
  53:source\asw/swc_brakelight.c ****     SC_BRAKELIGHT_data_t brakelight = SC_BRAKELIGHT_INIT_DATA;
  59              		.loc 1 53 0
  60 0012 4FF00001 		mov	r1, #0
  61              	.LVL5:
  54:source\asw/swc_brakelight.c ****     if(speed.speed_value == 0) brakelight.brakelight_value = TRUE; 
  62              		.loc 1 54 0
  63 0016 DBB2     		uxtb	r3, r3
  64              	.LVL6:
  65 0018 0BB9     		cbnz	r3, .L3
  66              		.loc 1 54 0 is_stmt 0 discriminator 1
  67 001a 4FF00101 		mov	r1, #1
  68              	.L3:
  69              	.LVL7:
  70              	.LBB13:
  71              	.LBB14:
  72              		.file 3 ".\\source\\rte/sc_brakelight.h"
   1:.\source\rte/sc_brakelight.h **** 
   2:.\source\rte/sc_brakelight.h **** 
   3:.\source\rte/sc_brakelight.h **** /**
   4:.\source\rte/sc_brakelight.h ****  *  file    SC_BRAKELIGHT_signal.h
   5:.\source\rte/sc_brakelight.h ****  *
   6:.\source\rte/sc_brakelight.h ****  *  brief   signal base class for signal sc_brakelight
   7:.\source\rte/sc_brakelight.h ****  *
   8:.\source\rte/sc_brakelight.h ****  *  author  Autogenerated, Peter Fromm       <peter.fromm@h-da.de>
   9:.\source\rte/sc_brakelight.h ****  *
  10:.\source\rte/sc_brakelight.h ****  * description: Signalclass representing brakelight
  11:.\source\rte/sc_brakelight.h ****  * name: sc_brakelight
  12:.\source\rte/sc_brakelight.h ****  * shortname: brakelight
  13:.\source\rte/sc_brakelight.h ****  *
  14:.\source\rte/sc_brakelight.h ****  */
  15:.\source\rte/sc_brakelight.h **** 
  16:.\source\rte/sc_brakelight.h **** 
  17:.\source\rte/sc_brakelight.h **** 
  18:.\source\rte/sc_brakelight.h **** #ifndef SC_BRAKELIGHT_SIGNAL_H_INCLUDED
  19:.\source\rte/sc_brakelight.h **** #define SC_BRAKELIGHT_SIGNAL_H_INCLUDED
  20:.\source\rte/sc_brakelight.h **** 
  21:.\source\rte/sc_brakelight.h **** /*================================================[ public includes  ]=============================
  22:.\source\rte/sc_brakelight.h **** #include "global.h"
  23:.\source\rte/sc_brakelight.h **** #include "project.h"
  24:.\source\rte/sc_brakelight.h **** #include "rte.h"
  25:.\source\rte/sc_brakelight.h **** #include "rte_types.h"
  26:.\source\rte/sc_brakelight.h **** 
  27:.\source\rte/sc_brakelight.h **** #include "sc_brakelight_type.h"
  28:.\source\rte/sc_brakelight.h **** 
  29:.\source\rte/sc_brakelight.h **** 
  30:.\source\rte/sc_brakelight.h **** /**************************************************************************************************
ARM GAS  C:\Users\saman\AppData\Local\Temp\cczjKMab.s 			page 7


  31:.\source\rte/sc_brakelight.h **** /* The driver API block																						*/
  32:.\source\rte/sc_brakelight.h **** /**************************************************************************************************
  33:.\source\rte/sc_brakelight.h ****                                                                                                    
  34:.\source\rte/sc_brakelight.h **** /**
  35:.\source\rte/sc_brakelight.h ****  *  Definition of function types for driver interfaces.
  36:.\source\rte/sc_brakelight.h ****  *  I-Port
  37:.\source\rte/sc_brakelight.h ****  */
  38:.\source\rte/sc_brakelight.h **** typedef RC_t (*SC_BRAKELIGHT_driverIn_t)(SC_BRAKELIGHT_data_t * const);
  39:.\source\rte/sc_brakelight.h **** 
  40:.\source\rte/sc_brakelight.h **** /**
  41:.\source\rte/sc_brakelight.h ****  *  Definition of function types for driver interfaces.
  42:.\source\rte/sc_brakelight.h ****  *  O-Port
  43:.\source\rte/sc_brakelight.h ****  */
  44:.\source\rte/sc_brakelight.h **** typedef RC_t (*SC_BRAKELIGHT_driverOut_t)( const SC_BRAKELIGHT_data_t * const);
  45:.\source\rte/sc_brakelight.h **** 
  46:.\source\rte/sc_brakelight.h **** 
  47:.\source\rte/sc_brakelight.h **** /**************************************************************************************************
  48:.\source\rte/sc_brakelight.h **** /* The signal configuration API block																				*/
  49:.\source\rte/sc_brakelight.h **** /**************************************************************************************************
  50:.\source\rte/sc_brakelight.h **** 
  51:.\source\rte/sc_brakelight.h **** /**
  52:.\source\rte/sc_brakelight.h ****  * Instances of the struct SC_BRAKELIGHT_cfg_t represent the signal object configuration.
  53:.\source\rte/sc_brakelight.h ****  */
  54:.\source\rte/sc_brakelight.h **** struct SC_BRAKELIGHT_cfg_s
  55:.\source\rte/sc_brakelight.h **** {
  56:.\source\rte/sc_brakelight.h ****     /**
  57:.\source\rte/sc_brakelight.h ****      * Function pointer to the input driver
  58:.\source\rte/sc_brakelight.h ****      */
  59:.\source\rte/sc_brakelight.h ****     SC_BRAKELIGHT_driverIn_t const inDriver;
  60:.\source\rte/sc_brakelight.h **** 
  61:.\source\rte/sc_brakelight.h ****     /**
  62:.\source\rte/sc_brakelight.h ****      * Function pointer to the output driver table
  63:.\source\rte/sc_brakelight.h ****      */
  64:.\source\rte/sc_brakelight.h ****    SC_BRAKELIGHT_driverOut_t const outDriver;
  65:.\source\rte/sc_brakelight.h ****    
  66:.\source\rte/sc_brakelight.h ****     /**
  67:.\source\rte/sc_brakelight.h ****      * Event onUpdate
  68:.\source\rte/sc_brakelight.h ****      */
  69:.\source\rte/sc_brakelight.h ****     EventMaskType const evOnUpdate;
  70:.\source\rte/sc_brakelight.h ****     
  71:.\source\rte/sc_brakelight.h ****     
  72:.\source\rte/sc_brakelight.h ****     /**
  73:.\source\rte/sc_brakelight.h ****      * Event onError
  74:.\source\rte/sc_brakelight.h ****      */
  75:.\source\rte/sc_brakelight.h ****     EventMaskType const evOnError;
  76:.\source\rte/sc_brakelight.h ****     
  77:.\source\rte/sc_brakelight.h ****     /**
  78:.\source\rte/sc_brakelight.h ****      * Task Count onUpdate
  79:.\source\rte/sc_brakelight.h ****      */
  80:.\source\rte/sc_brakelight.h ****     size_t const onUpdateTaskCount;
  81:.\source\rte/sc_brakelight.h **** 
  82:.\source\rte/sc_brakelight.h ****     /**
  83:.\source\rte/sc_brakelight.h ****      * Task List onUpdate
  84:.\source\rte/sc_brakelight.h ****      */
  85:.\source\rte/sc_brakelight.h ****     TaskTypeArray* const onUpdateTasks;
  86:.\source\rte/sc_brakelight.h ****     
  87:.\source\rte/sc_brakelight.h ****     /**
ARM GAS  C:\Users\saman\AppData\Local\Temp\cczjKMab.s 			page 8


  88:.\source\rte/sc_brakelight.h ****      * Task Count onError
  89:.\source\rte/sc_brakelight.h ****      */
  90:.\source\rte/sc_brakelight.h ****     size_t const onErrorTaskCount;
  91:.\source\rte/sc_brakelight.h **** 
  92:.\source\rte/sc_brakelight.h ****     /**
  93:.\source\rte/sc_brakelight.h ****      * Task List onError
  94:.\source\rte/sc_brakelight.h ****      */
  95:.\source\rte/sc_brakelight.h ****     TaskTypeArray* const onErrorTasks;
  96:.\source\rte/sc_brakelight.h **** 	
  97:.\source\rte/sc_brakelight.h **** 	
  98:.\source\rte/sc_brakelight.h **** 	/**
  99:.\source\rte/sc_brakelight.h **** 	 * Ressourse is active? We need an additional boolean as a ressource value 0 is valid.
 100:.\source\rte/sc_brakelight.h **** 	 */
 101:.\source\rte/sc_brakelight.h **** 	 boolean_t const resourceActive;
 102:.\source\rte/sc_brakelight.h **** 	 
 103:.\source\rte/sc_brakelight.h **** 	/**
 104:.\source\rte/sc_brakelight.h **** 	 * Ressourse 
 105:.\source\rte/sc_brakelight.h **** 	 */
 106:.\source\rte/sc_brakelight.h **** 	 ResourceType const resource;
 107:.\source\rte/sc_brakelight.h **** 
 108:.\source\rte/sc_brakelight.h **** };                                                                                                 
 109:.\source\rte/sc_brakelight.h **** typedef const struct SC_BRAKELIGHT_cfg_s SC_BRAKELIGHT_cfg_t;
 110:.\source\rte/sc_brakelight.h ****                               
 111:.\source\rte/sc_brakelight.h **** /**************************************************************************************************
 112:.\source\rte/sc_brakelight.h **** /* The data interface block																							*/
 113:.\source\rte/sc_brakelight.h **** /**************************************************************************************************
 114:.\source\rte/sc_brakelight.h **** 
 115:.\source\rte/sc_brakelight.h ****                                                                                                    
 116:.\source\rte/sc_brakelight.h **** 							  
 117:.\source\rte/sc_brakelight.h **** /**
 118:.\source\rte/sc_brakelight.h ****  * Instances of the struct SC_BRAKELIGHT_t represent the signal objects.
 119:.\source\rte/sc_brakelight.h ****  * A signal object contains the current application value 'value' as well as relevant meta data.
 120:.\source\rte/sc_brakelight.h ****  */
 121:.\source\rte/sc_brakelight.h **** struct SC_BRAKELIGHT_s
 122:.\source\rte/sc_brakelight.h **** {                                                                                                  
 123:.\source\rte/sc_brakelight.h **** 
 124:.\source\rte/sc_brakelight.h **** 	/**
 125:.\source\rte/sc_brakelight.h **** 	 * Data buffer for the application value
 126:.\source\rte/sc_brakelight.h **** 	 */
 127:.\source\rte/sc_brakelight.h ****     SC_BRAKELIGHT_data_t value;
 128:.\source\rte/sc_brakelight.h **** 
 129:.\source\rte/sc_brakelight.h ****     /**
 130:.\source\rte/sc_brakelight.h ****      * Current signal status
 131:.\source\rte/sc_brakelight.h ****      */
 132:.\source\rte/sc_brakelight.h ****     RTE_signalStatus_t status;
 133:.\source\rte/sc_brakelight.h **** 
 134:.\source\rte/sc_brakelight.h ****     /**
 135:.\source\rte/sc_brakelight.h ****      * Current age of the signal (in calling cycles)
 136:.\source\rte/sc_brakelight.h ****      */
 137:.\source\rte/sc_brakelight.h ****     uint32_t age;
 138:.\source\rte/sc_brakelight.h **** 
 139:.\source\rte/sc_brakelight.h ****     /**
 140:.\source\rte/sc_brakelight.h ****      * Pointer to the signal configuration
 141:.\source\rte/sc_brakelight.h ****      */
 142:.\source\rte/sc_brakelight.h **** 	const SC_BRAKELIGHT_cfg_t * const    pSigCfg;
 143:.\source\rte/sc_brakelight.h **** 
 144:.\source\rte/sc_brakelight.h **** };                                                                                                 
ARM GAS  C:\Users\saman\AppData\Local\Temp\cczjKMab.s 			page 9


 145:.\source\rte/sc_brakelight.h **** typedef struct SC_BRAKELIGHT_s SC_BRAKELIGHT_t;
 146:.\source\rte/sc_brakelight.h **** 
 147:.\source\rte/sc_brakelight.h **** /**************************************************************************************************
 148:.\source\rte/sc_brakelight.h **** /* Signal initialisation   																							*/
 149:.\source\rte/sc_brakelight.h **** /**************************************************************************************************
 150:.\source\rte/sc_brakelight.h **** 
 151:.\source\rte/sc_brakelight.h **** /**
 152:.\source\rte/sc_brakelight.h ****  * Initializes a signal instance with a passed init value.
 153:.\source\rte/sc_brakelight.h ****  * Depending on the configured conversion or scaling function the raw_value will be calculated.
 154:.\source\rte/sc_brakelight.h ****  * Signal status will change from RTE_SIGNALSTATUS_STARTUP to RTE_SIGNALSTATUS_INITIALIZED.
 155:.\source\rte/sc_brakelight.h ****  *
 156:.\source\rte/sc_brakelight.h ****  * @param  SC_BRAKELIGHT_t * const signal: Pointer to the signal object which will be initialised
 157:.\source\rte/sc_brakelight.h ****  * @return RC_t: standard return code, currently only RC_SUCCESS
 158:.\source\rte/sc_brakelight.h ****  *
 159:.\source\rte/sc_brakelight.h ****  **/
 160:.\source\rte/sc_brakelight.h **** inline RC_t RTE_SC_BRAKELIGHT_init( SC_BRAKELIGHT_t * const signal )
 161:.\source\rte/sc_brakelight.h **** {                                                                                                  
 162:.\source\rte/sc_brakelight.h **** 
 163:.\source\rte/sc_brakelight.h ****    RC_t ret = RC_SUCCESS;
 164:.\source\rte/sc_brakelight.h **** 
 165:.\source\rte/sc_brakelight.h ****    //Set value and raw value
 166:.\source\rte/sc_brakelight.h ****    signal->value  = SC_BRAKELIGHT_INIT_DATA;
 167:.\source\rte/sc_brakelight.h ****    signal->age    = 0;
 168:.\source\rte/sc_brakelight.h ****    signal->status = RTE_SIGNALSTATUS_INITIALIZED;
 169:.\source\rte/sc_brakelight.h **** 
 170:.\source\rte/sc_brakelight.h ****    return ret;
 171:.\source\rte/sc_brakelight.h **** }
 172:.\source\rte/sc_brakelight.h **** 
 173:.\source\rte/sc_brakelight.h **** /**************************************************************************************************
 174:.\source\rte/sc_brakelight.h **** /* Status and timeout control																						*/
 175:.\source\rte/sc_brakelight.h **** /**************************************************************************************************
 176:.\source\rte/sc_brakelight.h **** 
 177:.\source\rte/sc_brakelight.h **** /**
 178:.\source\rte/sc_brakelight.h ****  *  Returns the current signal status of the passed signal instance.
 179:.\source\rte/sc_brakelight.h ****  *
 180:.\source\rte/sc_brakelight.h ****  * @param  SC_BRAKELIGHT_t * const signal: Pointer to the signal object
 181:.\source\rte/sc_brakelight.h ****  * @return  sig_status_t: The current signal status
 182:.\source\rte/sc_brakelight.h ****  *
 183:.\source\rte/sc_brakelight.h ****  **/
 184:.\source\rte/sc_brakelight.h **** inline RTE_signalStatus_t RTE_SC_BRAKELIGHT_getStatus( const SC_BRAKELIGHT_t * const signal )
 185:.\source\rte/sc_brakelight.h **** {
 186:.\source\rte/sc_brakelight.h ****    return signal->status;
 187:.\source\rte/sc_brakelight.h **** }
 188:.\source\rte/sc_brakelight.h **** 
 189:.\source\rte/sc_brakelight.h **** 
 190:.\source\rte/sc_brakelight.h **** /**
 191:.\source\rte/sc_brakelight.h ****  *  Sets a new signal status of the passed signal instance by passing the new status.
 192:.\source\rte/sc_brakelight.h ****  *
 193:.\source\rte/sc_brakelight.h ****  * @param  SC_BRAKELIGHT_t * const signal: Pointer to the signal object
 194:.\source\rte/sc_brakelight.h ****  * @param  const sig_status_t status: New signal status
 195:.\source\rte/sc_brakelight.h ****  * @return RC_t: standard return code, currently only RC_SUCCESS
 196:.\source\rte/sc_brakelight.h ****  *
 197:.\source\rte/sc_brakelight.h ****  */
 198:.\source\rte/sc_brakelight.h **** inline RC_t RTE_SC_BRAKELIGHT_setStatus( SC_BRAKELIGHT_t * const signal, const RTE_signalStatus_t s
 199:.\source\rte/sc_brakelight.h **** {
 200:.\source\rte/sc_brakelight.h ****    signal->status = status;
 201:.\source\rte/sc_brakelight.h ****    size_t taskNum=0;
ARM GAS  C:\Users\saman\AppData\Local\Temp\cczjKMab.s 			page 10


 202:.\source\rte/sc_brakelight.h ****    
 203:.\source\rte/sc_brakelight.h ****    //Fire error events in case of invalid state
 204:.\source\rte/sc_brakelight.h ****    if (signal->status == RTE_SIGNALSTATUS_INVALID)
 205:.\source\rte/sc_brakelight.h ****    {
 206:.\source\rte/sc_brakelight.h **** 	    //Pointer to the Taskarray, containing the tasks receiving the onUpdate events
 207:.\source\rte/sc_brakelight.h **** 		TaskTypeArray* pTaskArray = signal->pSigCfg->onErrorTasks;
 208:.\source\rte/sc_brakelight.h **** 
 209:.\source\rte/sc_brakelight.h **** 		if (0 != signal->pSigCfg->evOnError && NULL != pTaskArray){
 210:.\source\rte/sc_brakelight.h **** 			for( taskNum=0 ; taskNum < signal->pSigCfg->onErrorTaskCount ;taskNum++){
 211:.\source\rte/sc_brakelight.h **** 				TaskType task = (*pTaskArray)[taskNum];
 212:.\source\rte/sc_brakelight.h **** 				SetEvent( task, signal->pSigCfg->evOnError);
 213:.\source\rte/sc_brakelight.h **** 			}
 214:.\source\rte/sc_brakelight.h **** 		}
 215:.\source\rte/sc_brakelight.h ****    }
 216:.\source\rte/sc_brakelight.h ****    
 217:.\source\rte/sc_brakelight.h ****    return RC_SUCCESS;
 218:.\source\rte/sc_brakelight.h **** }
 219:.\source\rte/sc_brakelight.h **** 
 220:.\source\rte/sc_brakelight.h **** 
 221:.\source\rte/sc_brakelight.h **** /**
 222:.\source\rte/sc_brakelight.h ****  * Returns the count of refreshing trials (refresh, set or set_raw) that failed.
 223:.\source\rte/sc_brakelight.h ****  * Prerquisite: The signal is refreshed cyclically
 224:.\source\rte/sc_brakelight.h ****  *
 225:.\source\rte/sc_brakelight.h ****  * @param  SC_BRAKELIGHT_t * const signal: Pointer to the signal object
 226:.\source\rte/sc_brakelight.h ****  * @return uint32_t: Number of cycles since the signal has been updated for the last time
 227:.\source\rte/sc_brakelight.h ****  */
 228:.\source\rte/sc_brakelight.h **** inline uint32_t RTE_SC_BRAKELIGHT_getAge( const SC_BRAKELIGHT_t * const signal )
 229:.\source\rte/sc_brakelight.h **** {
 230:.\source\rte/sc_brakelight.h ****    return signal->age;
 231:.\source\rte/sc_brakelight.h **** }
 232:.\source\rte/sc_brakelight.h **** 
 233:.\source\rte/sc_brakelight.h **** /**
 234:.\source\rte/sc_brakelight.h ****  * Should be called by application or driver if no new value can be provided.
 235:.\source\rte/sc_brakelight.h ****  * @param  SC_BRAKELIGHT_t * const signal: Pointer to the signal object
 236:.\source\rte/sc_brakelight.h ****  * @param uint32_t increment: incrementvalue, typically in [ms]
 237:.\source\rte/sc_brakelight.h ****  * @return void
 238:.\source\rte/sc_brakelight.h ****  */
 239:.\source\rte/sc_brakelight.h **** inline void RTE_SC_BRAKELIGHT_incAge(  SC_BRAKELIGHT_t * const signal , uint32_t increment)
 240:.\source\rte/sc_brakelight.h **** {
 241:.\source\rte/sc_brakelight.h **** 	   //Hack....
 242:.\source\rte/sc_brakelight.h **** 	   if ( 0xFFFF0000 > (signal->age + increment) )
 243:.\source\rte/sc_brakelight.h **** 	   {
 244:.\source\rte/sc_brakelight.h **** 	      signal->age += increment;
 245:.\source\rte/sc_brakelight.h **** 	   }
 246:.\source\rte/sc_brakelight.h **** }
 247:.\source\rte/sc_brakelight.h **** 
 248:.\source\rte/sc_brakelight.h **** 
 249:.\source\rte/sc_brakelight.h **** /**************************************************************************************************
 250:.\source\rte/sc_brakelight.h **** /* Application Data read/write Interface																			*/
 251:.\source\rte/sc_brakelight.h **** /**************************************************************************************************
 252:.\source\rte/sc_brakelight.h **** 
 253:.\source\rte/sc_brakelight.h **** /**
 254:.\source\rte/sc_brakelight.h ****  * Returns the current application value as pointer to the signal payload.
 255:.\source\rte/sc_brakelight.h ****  * Careful: This is not threadsafe!!!
 256:.\source\rte/sc_brakelight.h ****  *
 257:.\source\rte/sc_brakelight.h ****  * @param  SC_BRAKELIGHT_t * const signal: Pointer to the signal object
 258:.\source\rte/sc_brakelight.h ****  * @return sc_brakelight_data_t*: pointer to the current value of the application data buffer
ARM GAS  C:\Users\saman\AppData\Local\Temp\cczjKMab.s 			page 11


 259:.\source\rte/sc_brakelight.h ****  *
 260:.\source\rte/sc_brakelight.h ****  **/
 261:.\source\rte/sc_brakelight.h **** inline SC_BRAKELIGHT_data_t* RTE_SC_BRAKELIGHT_getPtr( SC_BRAKELIGHT_t * const signal )
 262:.\source\rte/sc_brakelight.h **** {               
 263:.\source\rte/sc_brakelight.h ****    //Todo: Critical region cannot be protected using return values																						
 264:.\source\rte/sc_brakelight.h ****    return &(signal->value);                                                                        
 265:.\source\rte/sc_brakelight.h **** }
 266:.\source\rte/sc_brakelight.h **** 
 267:.\source\rte/sc_brakelight.h **** /**
 268:.\source\rte/sc_brakelight.h ****  * Returns the current application value of the passed signal instance.
 269:.\source\rte/sc_brakelight.h ****  *
 270:.\source\rte/sc_brakelight.h ****  * @param  SC_BRAKELIGHT_t * const signal: Pointer to the signal object
 271:.\source\rte/sc_brakelight.h ****  * @return sc_brakelight_data_t: current value of the application data buffer
 272:.\source\rte/sc_brakelight.h ****  *
 273:.\source\rte/sc_brakelight.h ****  **/
 274:.\source\rte/sc_brakelight.h **** inline SC_BRAKELIGHT_data_t RTE_SC_BRAKELIGHT_get( const SC_BRAKELIGHT_t * const signal )
 275:.\source\rte/sc_brakelight.h **** {               
 276:.\source\rte/sc_brakelight.h ****    //Todo: Critical region cannot be protected using return values																						
 277:.\source\rte/sc_brakelight.h ****    return signal->value;                                                                           
 278:.\source\rte/sc_brakelight.h **** }                                                                                                  
 279:.\source\rte/sc_brakelight.h ****                                                                                                    
 280:.\source\rte/sc_brakelight.h **** /**
 281:.\source\rte/sc_brakelight.h ****  * Returns the current application value of the passed signal instance threadsafe.
 282:.\source\rte/sc_brakelight.h ****  *
 283:.\source\rte/sc_brakelight.h ****  * @param  SC_BRAKELIGHT_t * const signal: Pointer to the signal object
 284:.\source\rte/sc_brakelight.h ****  * @param  SC_BRAKELIGHT_data_t* data: Pointer to the return data Pointer to the signal object
 285:.\source\rte/sc_brakelight.h ****  * @return RC_SUCCESS
 286:.\source\rte/sc_brakelight.h ****  *
 287:.\source\rte/sc_brakelight.h ****  **/
 288:.\source\rte/sc_brakelight.h **** inline RC_t RTE_SC_BRAKELIGHT_getThreadSafe( const SC_BRAKELIGHT_t * const signal, SC_BRAKELIGHT_da
 289:.\source\rte/sc_brakelight.h **** {    
 290:.\source\rte/sc_brakelight.h ****    if (TRUE == signal->pSigCfg->resourceActive) GetResource(signal->pSigCfg->resource);
 291:.\source\rte/sc_brakelight.h ****    *data = signal->value;
 292:.\source\rte/sc_brakelight.h ****    if (TRUE == signal->pSigCfg->resourceActive) ReleaseResource(signal->pSigCfg->resource);        
 293:.\source\rte/sc_brakelight.h **** 
 294:.\source\rte/sc_brakelight.h ****    return RC_SUCCESS;                                                                   
 295:.\source\rte/sc_brakelight.h ****    
 296:.\source\rte/sc_brakelight.h **** }                                                                                                  
 297:.\source\rte/sc_brakelight.h ****                                                                                                    
 298:.\source\rte/sc_brakelight.h **** /**
 299:.\source\rte/sc_brakelight.h ****  * Sets a new application value to the passed signal instance by passing the new value.
 300:.\source\rte/sc_brakelight.h ****  * The corresponding driver raw value will be calculated immediately by using the default conversio
 301:.\source\rte/sc_brakelight.h ****  * signal specific scaling function.
 302:.\source\rte/sc_brakelight.h ****  * The signal age will be set to 0 and the new status will be 'RTE_SIGNALSTATUS_VALID'.
 303:.\source\rte/sc_brakelight.h ****  *
 304:.\source\rte/sc_brakelight.h ****  * @param  SC_BRAKELIGHT_t * const signal: Pointer to the signal object
 305:.\source\rte/sc_brakelight.h ****  * @param  sc_brakelight_data_t const value: value for the application data buffer
 306:.\source\rte/sc_brakelight.h ****  * @return RC_t: standard return code, currently only RC_SUCCESS
 307:.\source\rte/sc_brakelight.h ****  *
 308:.\source\rte/sc_brakelight.h ****  **/
 309:.\source\rte/sc_brakelight.h **** inline RC_t RTE_SC_BRAKELIGHT_set(SC_BRAKELIGHT_t * const signal, const SC_BRAKELIGHT_data_t value 
 310:.\source\rte/sc_brakelight.h **** {
 311:.\source\rte/sc_brakelight.h **** 
 312:.\source\rte/sc_brakelight.h ****    RC_t ret = RC_SUCCESS;
 313:.\source\rte/sc_brakelight.h ****    size_t taskNum=0;
 314:.\source\rte/sc_brakelight.h **** 
 315:.\source\rte/sc_brakelight.h **** 
ARM GAS  C:\Users\saman\AppData\Local\Temp\cczjKMab.s 			page 12


 316:.\source\rte/sc_brakelight.h ****    if (TRUE == signal->pSigCfg->resourceActive) GetResource(signal->pSigCfg->resource);
  73              		.loc 3 316 0 is_stmt 1
  74 001e 134B     		ldr	r3, .L10+4
  75 0020 9A68     		ldr	r2, [r3, #8]
  76              	.LVL8:
 317:.\source\rte/sc_brakelight.h ****    signal->value  = value;
  77              		.loc 3 317 0
  78 0022 1970     		strb	r1, [r3]
 318:.\source\rte/sc_brakelight.h ****    signal->age    = 0;
  79              		.loc 3 318 0
  80 0024 0021     		movs	r1, #0
  81              	.LVL9:
  82 0026 5960     		str	r1, [r3, #4]
 319:.\source\rte/sc_brakelight.h ****    signal->status = RTE_SIGNALSTATUS_VALID;
  83              		.loc 3 319 0
  84 0028 0221     		movs	r1, #2
  85 002a 5970     		strb	r1, [r3, #1]
 320:.\source\rte/sc_brakelight.h ****    if (TRUE == signal->pSigCfg->resourceActive) ReleaseResource(signal->pSigCfg->resource);
 321:.\source\rte/sc_brakelight.h **** 
 322:.\source\rte/sc_brakelight.h ****    //Pointer to the Taskarray, containing the tasks receiving the onUpdate events
 323:.\source\rte/sc_brakelight.h ****    TaskTypeArray* pTaskArray = signal->pSigCfg->onUpdateTasks;
  86              		.loc 3 323 0
  87 002c 5569     		ldr	r5, [r2, #20]
  88              	.LVL10:
 324:.\source\rte/sc_brakelight.h **** 
 325:.\source\rte/sc_brakelight.h ****    if (0 != signal->pSigCfg->evOnUpdate && NULL != pTaskArray){
  89              		.loc 3 325 0
  90 002e 9368     		ldr	r3, [r2, #8]
  91 0030 73B1     		cbz	r3, .L4
  92 0032 3DB9     		cbnz	r5, .L8
  93 0034 0CE0     		b	.L4
  94              	.LVL11:
  95              	.L6:
  96              	.LBB15:
 326:.\source\rte/sc_brakelight.h ****       for( taskNum=0 ; taskNum < signal->pSigCfg->onUpdateTaskCount ;taskNum++){
 327:.\source\rte/sc_brakelight.h **** 		  
 328:.\source\rte/sc_brakelight.h ****           TaskType task = (*pTaskArray)[taskNum];
 329:.\source\rte/sc_brakelight.h **** 	      SetEvent( task, signal->pSigCfg->evOnUpdate);
  97              		.loc 3 329 0
  98 0036 9968     		ldr	r1, [r3, #8]
  99 0038 55F82400 		ldr	r0, [r5, r4, lsl #2]
 100 003c FFF7FEFF 		bl	EE_oo_SetEvent
 101              	.LVL12:
 102              	.LBE15:
 326:.\source\rte/sc_brakelight.h ****       for( taskNum=0 ; taskNum < signal->pSigCfg->onUpdateTaskCount ;taskNum++){
 103              		.loc 3 326 0
 104 0040 0134     		adds	r4, r4, #1
 105              	.LVL13:
 106 0042 00E0     		b	.L5
 107              	.LVL14:
 108              	.L8:
 325:.\source\rte/sc_brakelight.h ****       for( taskNum=0 ; taskNum < signal->pSigCfg->onUpdateTaskCount ;taskNum++){
 109              		.loc 3 325 0
 110 0044 0024     		movs	r4, #0
 111              	.LVL15:
 112              	.L5:
 326:.\source\rte/sc_brakelight.h ****       for( taskNum=0 ; taskNum < signal->pSigCfg->onUpdateTaskCount ;taskNum++){
ARM GAS  C:\Users\saman\AppData\Local\Temp\cczjKMab.s 			page 13


 113              		.loc 3 326 0
 114 0046 094B     		ldr	r3, .L10+4
 115 0048 9B68     		ldr	r3, [r3, #8]
 116 004a 1A69     		ldr	r2, [r3, #16]
 117 004c 9442     		cmp	r4, r2
 118 004e F2D3     		bcc	.L6
 119              	.LVL16:
 120              	.L4:
 121              	.LBE14:
 122              	.LBE13:
 123              	.LBB16:
 124              	.LBB17:
 330:.\source\rte/sc_brakelight.h ****       }
 331:.\source\rte/sc_brakelight.h ****    }
 332:.\source\rte/sc_brakelight.h **** 
 333:.\source\rte/sc_brakelight.h ****    return ret;
 334:.\source\rte/sc_brakelight.h **** }                                                                                                  
 335:.\source\rte/sc_brakelight.h ****                                                                                                    
 336:.\source\rte/sc_brakelight.h ****                                                                                                    
 337:.\source\rte/sc_brakelight.h **** /**************************************************************************************************
 338:.\source\rte/sc_brakelight.h **** /* Call functions to the connected drivers																			*/
 339:.\source\rte/sc_brakelight.h **** /**************************************************************************************************
 340:.\source\rte/sc_brakelight.h **** 
 341:.\source\rte/sc_brakelight.h ****                                                                                                    
 342:.\source\rte/sc_brakelight.h **** /**
 343:.\source\rte/sc_brakelight.h ****  *  Calls the connected driver interface to get a new value.
 344:.\source\rte/sc_brakelight.h ****  *
 345:.\source\rte/sc_brakelight.h ****  * @param SC_BRAKELIGHT_t * const signal: Pointer to the signal object
 346:.\source\rte/sc_brakelight.h ****  * @return  RC_t: Return value of the driver call
 347:.\source\rte/sc_brakelight.h ****  *
 348:.\source\rte/sc_brakelight.h ****  */
 349:.\source\rte/sc_brakelight.h **** inline RC_t RTE_SC_BRAKELIGHT_pullPort( SC_BRAKELIGHT_t * const signal )
 350:.\source\rte/sc_brakelight.h **** {                                                                                                  
 351:.\source\rte/sc_brakelight.h ****    RC_t ret = RC_SUCCESS;
 352:.\source\rte/sc_brakelight.h **** 
 353:.\source\rte/sc_brakelight.h ****                                                                                                    
 354:.\source\rte/sc_brakelight.h ****    if ( NULL != signal->pSigCfg->inDriver )
 355:.\source\rte/sc_brakelight.h ****    {
 356:.\source\rte/sc_brakelight.h **** 	  SC_BRAKELIGHT_data_t value = signal->value;
 357:.\source\rte/sc_brakelight.h ****       ret = signal->pSigCfg->inDriver(&value);
 358:.\source\rte/sc_brakelight.h ****                                                                                                    
 359:.\source\rte/sc_brakelight.h ****       if ( ret == RC_SUCCESS )                                                                     
 360:.\source\rte/sc_brakelight.h ****       {
 361:.\source\rte/sc_brakelight.h ****     	  //Critical Section
 362:.\source\rte/sc_brakelight.h ****     	  RTE_SC_BRAKELIGHT_set(signal, value);
 363:.\source\rte/sc_brakelight.h ****       }
 364:.\source\rte/sc_brakelight.h ****       else
 365:.\source\rte/sc_brakelight.h ****       {
 366:.\source\rte/sc_brakelight.h **** 		  //Signal is invalid. Error event (if present) will be fired
 367:.\source\rte/sc_brakelight.h **** 		  RTE_SC_BRAKELIGHT_setStatus(signal, RTE_SIGNALSTATUS_INVALID);
 368:.\source\rte/sc_brakelight.h ****       }
 369:.\source\rte/sc_brakelight.h **** 
 370:.\source\rte/sc_brakelight.h ****    }                                                                                               
 371:.\source\rte/sc_brakelight.h ****                                                                                                    
 372:.\source\rte/sc_brakelight.h ****    return ret;                                                                                     
 373:.\source\rte/sc_brakelight.h **** }                                                                                                  
 374:.\source\rte/sc_brakelight.h ****                                                                                                    
ARM GAS  C:\Users\saman\AppData\Local\Temp\cczjKMab.s 			page 14


 375:.\source\rte/sc_brakelight.h **** /**
 376:.\source\rte/sc_brakelight.h ****  *  Calls the connected driver interfaces to send a value. Value will not be sent if it is INVALID.
 377:.\source\rte/sc_brakelight.h ****  *
 378:.\source\rte/sc_brakelight.h ****  * @param SC_BRAKELIGHT_t * const signal: Pointer to the signal object
 379:.\source\rte/sc_brakelight.h ****  * @return  RC_t: Return value of the driver call
 380:.\source\rte/sc_brakelight.h ****  *
 381:.\source\rte/sc_brakelight.h ****  **/
 382:.\source\rte/sc_brakelight.h **** inline RC_t RTE_SC_BRAKELIGHT_pushPort( const SC_BRAKELIGHT_t * const signal )
 383:.\source\rte/sc_brakelight.h **** {                                                                                                  
 384:.\source\rte/sc_brakelight.h ****    RC_t ret = RC_ERROR;
 385:.\source\rte/sc_brakelight.h **** 
 386:.\source\rte/sc_brakelight.h ****    if (RTE_SIGNALSTATUS_VALID == signal->status)
 125              		.loc 3 386 0
 126 0050 064B     		ldr	r3, .L10+4
 127 0052 5B78     		ldrb	r3, [r3, #1]	@ zero_extendqisi2
 128 0054 022B     		cmp	r3, #2
 129 0056 03D1     		bne	.L7
 387:.\source\rte/sc_brakelight.h ****    {
 388:.\source\rte/sc_brakelight.h **** 	   ret = signal->pSigCfg->outDriver(&(signal->value));
 130              		.loc 3 388 0
 131 0058 0448     		ldr	r0, .L10+4
 132 005a 8368     		ldr	r3, [r0, #8]
 133 005c 5B68     		ldr	r3, [r3, #4]
 134 005e 9847     		blx	r3
 135              	.LVL17:
 136              	.L7:
 137              	.LBE17:
 138              	.LBE16:
  55:source\asw/swc_brakelight.c ****     else brakelight.brakelight_value = FALSE; 
  56:source\asw/swc_brakelight.c ****     
  57:source\asw/swc_brakelight.c ****     RTE_SC_BRAKELIGHT_set(&SO_BRAKELIGHT_signal, brakelight);
  58:source\asw/swc_brakelight.c ****     RTE_SC_BRAKELIGHT_pushPort(&SO_BRAKELIGHT_signal);
  59:source\asw/swc_brakelight.c ****     WD_Alive(brakelight_run);
 139              		.loc 1 59 0
 140 0060 0320     		movs	r0, #3
 141 0062 FFF7FEFF 		bl	WD_Alive
 142              	.LVL18:
 143 0066 38BD     		pop	{r3, r4, r5, pc}
 144              	.L11:
 145              		.align	2
 146              	.L10:
 147 0068 00000000 		.word	SO_SPEED_signal
 148 006c 00000000 		.word	SO_BRAKELIGHT_signal
 149              		.cfi_endproc
 150              	.LFE154:
 151              		.size	BRAKELIGHT_set_brakelight_run, .-BRAKELIGHT_set_brakelight_run
 152              		.text
 153              	.Letext0:
 154              		.file 4 "c:\\program files (x86)\\cypress\\psoc creator\\4.4\\psoc creator\\import\\gnu\\arm\\5.4.
 155              		.file 5 "c:\\program files (x86)\\cypress\\psoc creator\\4.4\\psoc creator\\import\\gnu\\arm\\5.4.
 156              		.file 6 "c:\\program files (x86)\\cypress\\psoc creator\\4.4\\psoc creator\\import\\gnu\\arm\\5.4.
 157              		.file 7 "Generated_Source\\PSoC5/ErikaOS_1_common_ee_types.inc"
 158              		.file 8 "Generated_Source\\PSoC5/ErikaOS_1_cortex_mx_ee_cpu.inc"
 159              		.file 9 "Generated_Source\\PSoC5/ErikaOS_1_ee_oo_common.inc"
 160              		.file 10 ".\\source\\bsw/global.h"
 161              		.file 11 ".\\source\\rte/rte_types.h"
 162              		.file 12 ".\\source\\rte/rte.h"
ARM GAS  C:\Users\saman\AppData\Local\Temp\cczjKMab.s 			page 15


 163              		.file 13 ".\\source\\rte/sc_speed_type.h"
 164              		.file 14 ".\\source\\rte/sc_brakelight_type.h"
 165              		.file 15 "Generated_Source\\PSoC5/ErikaOS_1_ee_oo_intfunc.inc"
 166              		.file 16 "Generated_Source\\PSoC5/ErikaOS_1_cortex_mx_ee_context.inc"
 167              		.file 17 "Generated_Source\\PSoC5/ErikaOS_1_common_ee_primitives.inc"
 168              		.file 18 "Generated_Source\\PSoC5/core_cm3.h"
 169              		.file 19 ".\\source\\rte/sp_common.h"
 170              		.file 20 "Generated_Source\\PSoC5/ErikaOS_1_ee_oo_kernel.inc"
 171              		.file 21 "./watchdog.h"