ARM GAS  C:\Users\saman\AppData\Local\Temp\ccHbNeFw.s 			page 1


   1              		.syntax unified
   2              		.cpu cortex-m3
   3              		.fpu softvfp
   4              		.eabi_attribute 20, 1
   5              		.eabi_attribute 21, 1
   6              		.eabi_attribute 23, 3
   7              		.eabi_attribute 24, 1
   8              		.eabi_attribute 25, 1
   9              		.eabi_attribute 26, 1
  10              		.eabi_attribute 30, 1
  11              		.eabi_attribute 34, 1
  12              		.eabi_attribute 18, 4
  13              		.thumb
  14              		.syntax unified
  15              		.file	"swc_engine.c"
  16              		.text
  17              	.Ltext0:
  18              		.cfi_sections	.debug_frame
  19              		.section	.text.ENGINE_set_engine_run,"ax",%progbits
  20              		.align	2
  21              		.global	ENGINE_set_engine_run
  22              		.thumb
  23              		.thumb_func
  24              		.type	ENGINE_set_engine_run, %function
  25              	ENGINE_set_engine_run:
  26              	.LFB154:
  27              		.file 1 "source\\asw\\swc_engine.c"
   1:source\asw/swc_engine.c **** /*
   2:source\asw/swc_engine.c ****  * Filename: swc_engine.c
   3:source\asw/swc_engine.c ****  *
   4:source\asw/swc_engine.c ****  * Author: Autogenerated by H-DA RTE Generator, (c) Prof. Fromm
   5:source\asw/swc_engine.c ****  *
   6:source\asw/swc_engine.c ****  * description: SWC for engine
   7:source\asw/swc_engine.c ****  * name: swc_engine
   8:source\asw/swc_engine.c ****  * shortname: engine
   9:source\asw/swc_engine.c ****  *
  10:source\asw/swc_engine.c ****  */
  11:source\asw/swc_engine.c **** 
  12:source\asw/swc_engine.c **** #include "project.h"
  13:source\asw/swc_engine.c **** #include "global.h"
  14:source\asw/swc_engine.c **** #include "rte.h"
  15:source\asw/swc_engine.c **** #include "rte_types.h"
  16:source\asw/swc_engine.c **** #include "swc_engine.h"
  17:source\asw/swc_engine.c **** 
  18:source\asw/swc_engine.c **** 
  19:source\asw/swc_engine.c **** 
  20:source\asw/swc_engine.c **** /* USER CODE START SWC_ENGINE_INCLUDE */
  21:source\asw/swc_engine.c **** 
  22:source\asw/swc_engine.c **** /* USER CODE END SWC_ENGINE_INCLUDE */
  23:source\asw/swc_engine.c **** 
  24:source\asw/swc_engine.c **** 
  25:source\asw/swc_engine.c **** #include "sp_common.h"
  26:source\asw/swc_engine.c **** 
  27:source\asw/swc_engine.c **** /* USER CODE START SWC_ENGINE_USERDEFINITIONS */
  28:source\asw/swc_engine.c **** 
  29:source\asw/swc_engine.c **** /* USER CODE END SWC_ENGINE_USERDEFINITIONS */
  30:source\asw/swc_engine.c **** 
ARM GAS  C:\Users\saman\AppData\Local\Temp\ccHbNeFw.s 			page 2


  31:source\asw/swc_engine.c **** 
  32:source\asw/swc_engine.c **** 
  33:source\asw/swc_engine.c **** /*
  34:source\asw/swc_engine.c ****  * component: swc_engine
  35:source\asw/swc_engine.c ****  * cycletime: 100
  36:source\asw/swc_engine.c ****  * description: Runnable to copy incoming speed signal to engine and call pushPort()
  37:source\asw/swc_engine.c ****  * events: 
  38:source\asw/swc_engine.c ****  * name: ENGINE_set_engine_run
  39:source\asw/swc_engine.c ****  * shortname: set_engine
  40:source\asw/swc_engine.c ****  * signalIN: so_speed
  41:source\asw/swc_engine.c ****  * signalOUT: so_engine
  42:source\asw/swc_engine.c ****  * task: tsk_io
  43:source\asw/swc_engine.c ****  */
  44:source\asw/swc_engine.c **** void ENGINE_set_engine_run(RTE_event ev){
  28              		.loc 1 44 0
  29              		.cfi_startproc
  30              		@ args = 0, pretend = 0, frame = 0
  31              		@ frame_needed = 0, uses_anonymous_args = 0
  32              	.LVL0:
  33 0000 38B5     		push	{r3, r4, r5, lr}
  34              		.cfi_def_cfa_offset 16
  35              		.cfi_offset 3, -16
  36              		.cfi_offset 4, -12
  37              		.cfi_offset 5, -8
  38              		.cfi_offset 14, -4
  45:source\asw/swc_engine.c **** 	
  46:source\asw/swc_engine.c **** 	/* USER CODE START ENGINE_set_engine_run */
  47:source\asw/swc_engine.c **** 
  48:source\asw/swc_engine.c ****     SC_SPEED_data_t speed = SC_SPEED_INIT_DATA;
  39              		.loc 1 48 0
  40 0002 0023     		movs	r3, #0
  41 0004 1946     		mov	r1, r3
  42              	.LVL1:
  43              	.LBB13:
  44              	.LBB14:
  45              		.file 2 ".\\source\\rte/sc_speed.h"
   1:.\source\rte/sc_speed.h **** 
   2:.\source\rte/sc_speed.h **** 
   3:.\source\rte/sc_speed.h **** /**
   4:.\source\rte/sc_speed.h ****  *  file    SC_SPEED_signal.h
   5:.\source\rte/sc_speed.h ****  *
   6:.\source\rte/sc_speed.h ****  *  brief   signal base class for signal sc_speed
   7:.\source\rte/sc_speed.h ****  *
   8:.\source\rte/sc_speed.h ****  *  author  Autogenerated, Peter Fromm       <peter.fromm@h-da.de>
   9:.\source\rte/sc_speed.h ****  *
  10:.\source\rte/sc_speed.h ****  * description: Signalclass representing speed
  11:.\source\rte/sc_speed.h ****  * name: sc_speed
  12:.\source\rte/sc_speed.h ****  * shortname: speed
  13:.\source\rte/sc_speed.h ****  *
  14:.\source\rte/sc_speed.h ****  */
  15:.\source\rte/sc_speed.h **** 
  16:.\source\rte/sc_speed.h **** 
  17:.\source\rte/sc_speed.h **** 
  18:.\source\rte/sc_speed.h **** #ifndef SC_SPEED_SIGNAL_H_INCLUDED
  19:.\source\rte/sc_speed.h **** #define SC_SPEED_SIGNAL_H_INCLUDED
  20:.\source\rte/sc_speed.h **** 
  21:.\source\rte/sc_speed.h **** /*================================================[ public includes  ]=============================
ARM GAS  C:\Users\saman\AppData\Local\Temp\ccHbNeFw.s 			page 3


  22:.\source\rte/sc_speed.h **** #include "global.h"
  23:.\source\rte/sc_speed.h **** #include "project.h"
  24:.\source\rte/sc_speed.h **** #include "rte.h"
  25:.\source\rte/sc_speed.h **** #include "rte_types.h"
  26:.\source\rte/sc_speed.h **** 
  27:.\source\rte/sc_speed.h **** #include "sc_speed_type.h"
  28:.\source\rte/sc_speed.h **** 
  29:.\source\rte/sc_speed.h **** 
  30:.\source\rte/sc_speed.h **** /**************************************************************************************************
  31:.\source\rte/sc_speed.h **** /* The driver API block																						*/
  32:.\source\rte/sc_speed.h **** /**************************************************************************************************
  33:.\source\rte/sc_speed.h ****                                                                                                    
  34:.\source\rte/sc_speed.h **** /**
  35:.\source\rte/sc_speed.h ****  *  Definition of function types for driver interfaces.
  36:.\source\rte/sc_speed.h ****  *  I-Port
  37:.\source\rte/sc_speed.h ****  */
  38:.\source\rte/sc_speed.h **** typedef RC_t (*SC_SPEED_driverIn_t)(SC_SPEED_data_t * const);
  39:.\source\rte/sc_speed.h **** 
  40:.\source\rte/sc_speed.h **** /**
  41:.\source\rte/sc_speed.h ****  *  Definition of function types for driver interfaces.
  42:.\source\rte/sc_speed.h ****  *  O-Port
  43:.\source\rte/sc_speed.h ****  */
  44:.\source\rte/sc_speed.h **** typedef RC_t (*SC_SPEED_driverOut_t)( const SC_SPEED_data_t * const);
  45:.\source\rte/sc_speed.h **** 
  46:.\source\rte/sc_speed.h **** 
  47:.\source\rte/sc_speed.h **** /**************************************************************************************************
  48:.\source\rte/sc_speed.h **** /* The signal configuration API block																				*/
  49:.\source\rte/sc_speed.h **** /**************************************************************************************************
  50:.\source\rte/sc_speed.h **** 
  51:.\source\rte/sc_speed.h **** /**
  52:.\source\rte/sc_speed.h ****  * Instances of the struct SC_SPEED_cfg_t represent the signal object configuration.
  53:.\source\rte/sc_speed.h ****  */
  54:.\source\rte/sc_speed.h **** struct SC_SPEED_cfg_s
  55:.\source\rte/sc_speed.h **** {
  56:.\source\rte/sc_speed.h ****     /**
  57:.\source\rte/sc_speed.h ****      * Function pointer to the input driver
  58:.\source\rte/sc_speed.h ****      */
  59:.\source\rte/sc_speed.h ****     SC_SPEED_driverIn_t const inDriver;
  60:.\source\rte/sc_speed.h **** 
  61:.\source\rte/sc_speed.h ****     /**
  62:.\source\rte/sc_speed.h ****      * Function pointer to the output driver table
  63:.\source\rte/sc_speed.h ****      */
  64:.\source\rte/sc_speed.h ****    SC_SPEED_driverOut_t const outDriver;
  65:.\source\rte/sc_speed.h ****    
  66:.\source\rte/sc_speed.h ****     /**
  67:.\source\rte/sc_speed.h ****      * Event onUpdate
  68:.\source\rte/sc_speed.h ****      */
  69:.\source\rte/sc_speed.h ****     EventMaskType const evOnUpdate;
  70:.\source\rte/sc_speed.h ****     
  71:.\source\rte/sc_speed.h ****     
  72:.\source\rte/sc_speed.h ****     /**
  73:.\source\rte/sc_speed.h ****      * Event onError
  74:.\source\rte/sc_speed.h ****      */
  75:.\source\rte/sc_speed.h ****     EventMaskType const evOnError;
  76:.\source\rte/sc_speed.h ****     
  77:.\source\rte/sc_speed.h ****     /**
  78:.\source\rte/sc_speed.h ****      * Task Count onUpdate
ARM GAS  C:\Users\saman\AppData\Local\Temp\ccHbNeFw.s 			page 4


  79:.\source\rte/sc_speed.h ****      */
  80:.\source\rte/sc_speed.h ****     size_t const onUpdateTaskCount;
  81:.\source\rte/sc_speed.h **** 
  82:.\source\rte/sc_speed.h ****     /**
  83:.\source\rte/sc_speed.h ****      * Task List onUpdate
  84:.\source\rte/sc_speed.h ****      */
  85:.\source\rte/sc_speed.h ****     TaskTypeArray* const onUpdateTasks;
  86:.\source\rte/sc_speed.h ****     
  87:.\source\rte/sc_speed.h ****     /**
  88:.\source\rte/sc_speed.h ****      * Task Count onError
  89:.\source\rte/sc_speed.h ****      */
  90:.\source\rte/sc_speed.h ****     size_t const onErrorTaskCount;
  91:.\source\rte/sc_speed.h **** 
  92:.\source\rte/sc_speed.h ****     /**
  93:.\source\rte/sc_speed.h ****      * Task List onError
  94:.\source\rte/sc_speed.h ****      */
  95:.\source\rte/sc_speed.h ****     TaskTypeArray* const onErrorTasks;
  96:.\source\rte/sc_speed.h **** 	
  97:.\source\rte/sc_speed.h **** 	
  98:.\source\rte/sc_speed.h **** 	/**
  99:.\source\rte/sc_speed.h **** 	 * Ressourse is active? We need an additional boolean as a ressource value 0 is valid.
 100:.\source\rte/sc_speed.h **** 	 */
 101:.\source\rte/sc_speed.h **** 	 boolean_t const resourceActive;
 102:.\source\rte/sc_speed.h **** 	 
 103:.\source\rte/sc_speed.h **** 	/**
 104:.\source\rte/sc_speed.h **** 	 * Ressourse 
 105:.\source\rte/sc_speed.h **** 	 */
 106:.\source\rte/sc_speed.h **** 	 ResourceType const resource;
 107:.\source\rte/sc_speed.h **** 
 108:.\source\rte/sc_speed.h **** };                                                                                                 
 109:.\source\rte/sc_speed.h **** typedef const struct SC_SPEED_cfg_s SC_SPEED_cfg_t;
 110:.\source\rte/sc_speed.h ****                               
 111:.\source\rte/sc_speed.h **** /**************************************************************************************************
 112:.\source\rte/sc_speed.h **** /* The data interface block																							*/
 113:.\source\rte/sc_speed.h **** /**************************************************************************************************
 114:.\source\rte/sc_speed.h **** 
 115:.\source\rte/sc_speed.h ****                                                                                                    
 116:.\source\rte/sc_speed.h **** 							  
 117:.\source\rte/sc_speed.h **** /**
 118:.\source\rte/sc_speed.h ****  * Instances of the struct SC_SPEED_t represent the signal objects.
 119:.\source\rte/sc_speed.h ****  * A signal object contains the current application value 'value' as well as relevant meta data.
 120:.\source\rte/sc_speed.h ****  */
 121:.\source\rte/sc_speed.h **** struct SC_SPEED_s
 122:.\source\rte/sc_speed.h **** {                                                                                                  
 123:.\source\rte/sc_speed.h **** 
 124:.\source\rte/sc_speed.h **** 	/**
 125:.\source\rte/sc_speed.h **** 	 * Data buffer for the application value
 126:.\source\rte/sc_speed.h **** 	 */
 127:.\source\rte/sc_speed.h ****     SC_SPEED_data_t value;
 128:.\source\rte/sc_speed.h **** 
 129:.\source\rte/sc_speed.h ****     /**
 130:.\source\rte/sc_speed.h ****      * Current signal status
 131:.\source\rte/sc_speed.h ****      */
 132:.\source\rte/sc_speed.h ****     RTE_signalStatus_t status;
 133:.\source\rte/sc_speed.h **** 
 134:.\source\rte/sc_speed.h ****     /**
 135:.\source\rte/sc_speed.h ****      * Current age of the signal (in calling cycles)
ARM GAS  C:\Users\saman\AppData\Local\Temp\ccHbNeFw.s 			page 5


 136:.\source\rte/sc_speed.h ****      */
 137:.\source\rte/sc_speed.h ****     uint32_t age;
 138:.\source\rte/sc_speed.h **** 
 139:.\source\rte/sc_speed.h ****     /**
 140:.\source\rte/sc_speed.h ****      * Pointer to the signal configuration
 141:.\source\rte/sc_speed.h ****      */
 142:.\source\rte/sc_speed.h **** 	const SC_SPEED_cfg_t * const    pSigCfg;
 143:.\source\rte/sc_speed.h **** 
 144:.\source\rte/sc_speed.h **** };                                                                                                 
 145:.\source\rte/sc_speed.h **** typedef struct SC_SPEED_s SC_SPEED_t;
 146:.\source\rte/sc_speed.h **** 
 147:.\source\rte/sc_speed.h **** /**************************************************************************************************
 148:.\source\rte/sc_speed.h **** /* Signal initialisation   																							*/
 149:.\source\rte/sc_speed.h **** /**************************************************************************************************
 150:.\source\rte/sc_speed.h **** 
 151:.\source\rte/sc_speed.h **** /**
 152:.\source\rte/sc_speed.h ****  * Initializes a signal instance with a passed init value.
 153:.\source\rte/sc_speed.h ****  * Depending on the configured conversion or scaling function the raw_value will be calculated.
 154:.\source\rte/sc_speed.h ****  * Signal status will change from RTE_SIGNALSTATUS_STARTUP to RTE_SIGNALSTATUS_INITIALIZED.
 155:.\source\rte/sc_speed.h ****  *
 156:.\source\rte/sc_speed.h ****  * @param  SC_SPEED_t * const signal: Pointer to the signal object which will be initialised
 157:.\source\rte/sc_speed.h ****  * @return RC_t: standard return code, currently only RC_SUCCESS
 158:.\source\rte/sc_speed.h ****  *
 159:.\source\rte/sc_speed.h ****  **/
 160:.\source\rte/sc_speed.h **** inline RC_t RTE_SC_SPEED_init( SC_SPEED_t * const signal )
 161:.\source\rte/sc_speed.h **** {                                                                                                  
 162:.\source\rte/sc_speed.h **** 
 163:.\source\rte/sc_speed.h ****    RC_t ret = RC_SUCCESS;
 164:.\source\rte/sc_speed.h **** 
 165:.\source\rte/sc_speed.h ****    //Set value and raw value
 166:.\source\rte/sc_speed.h ****    signal->value  = SC_SPEED_INIT_DATA;
 167:.\source\rte/sc_speed.h ****    signal->age    = 0;
 168:.\source\rte/sc_speed.h ****    signal->status = RTE_SIGNALSTATUS_INITIALIZED;
 169:.\source\rte/sc_speed.h **** 
 170:.\source\rte/sc_speed.h ****    return ret;
 171:.\source\rte/sc_speed.h **** }
 172:.\source\rte/sc_speed.h **** 
 173:.\source\rte/sc_speed.h **** /**************************************************************************************************
 174:.\source\rte/sc_speed.h **** /* Status and timeout control																						*/
 175:.\source\rte/sc_speed.h **** /**************************************************************************************************
 176:.\source\rte/sc_speed.h **** 
 177:.\source\rte/sc_speed.h **** /**
 178:.\source\rte/sc_speed.h ****  *  Returns the current signal status of the passed signal instance.
 179:.\source\rte/sc_speed.h ****  *
 180:.\source\rte/sc_speed.h ****  * @param  SC_SPEED_t * const signal: Pointer to the signal object
 181:.\source\rte/sc_speed.h ****  * @return  sig_status_t: The current signal status
 182:.\source\rte/sc_speed.h ****  *
 183:.\source\rte/sc_speed.h ****  **/
 184:.\source\rte/sc_speed.h **** inline RTE_signalStatus_t RTE_SC_SPEED_getStatus( const SC_SPEED_t * const signal )
 185:.\source\rte/sc_speed.h **** {
 186:.\source\rte/sc_speed.h ****    return signal->status;
  46              		.loc 2 186 0
  47 0006 184A     		ldr	r2, .L10
  48 0008 5278     		ldrb	r2, [r2, #1]	@ zero_extendqisi2
  49              	.LVL2:
  50              	.LBE14:
  51              	.LBE13:
ARM GAS  C:\Users\saman\AppData\Local\Temp\ccHbNeFw.s 			page 6


  49:source\asw/swc_engine.c ****     static uint32_t speed_age = 0;
  50:source\asw/swc_engine.c ****     SC_ENGINE_data_t engine = SC_ENGINE_INIT_DATA;
  51:source\asw/swc_engine.c ****     
  52:source\asw/swc_engine.c ****     if(RTE_SC_SPEED_getStatus(&SO_SPEED_signal) == RTE_SIGNALSTATUS_VALID)
  52              		.loc 1 52 0
  53 000a 022A     		cmp	r2, #2
  54 000c 01D1     		bne	.L2
  55              	.LVL3:
  53:source\asw/swc_engine.c ****     {
  54:source\asw/swc_engine.c ****         speed.speed_value = RTE_SC_SPEED_get(&SO_SPEED_signal).speed_value;
  56              		.loc 1 54 0
  57 000e 164A     		ldr	r2, .L10
  58 0010 1178     		ldrb	r1, [r2]	@ zero_extendqisi2
  59              	.L2:
  60              	.LVL4:
  61              	.LBB15:
  62              	.LBB16:
 187:.\source\rte/sc_speed.h **** }
 188:.\source\rte/sc_speed.h **** 
 189:.\source\rte/sc_speed.h **** 
 190:.\source\rte/sc_speed.h **** /**
 191:.\source\rte/sc_speed.h ****  *  Sets a new signal status of the passed signal instance by passing the new status.
 192:.\source\rte/sc_speed.h ****  *
 193:.\source\rte/sc_speed.h ****  * @param  SC_SPEED_t * const signal: Pointer to the signal object
 194:.\source\rte/sc_speed.h ****  * @param  const sig_status_t status: New signal status
 195:.\source\rte/sc_speed.h ****  * @return RC_t: standard return code, currently only RC_SUCCESS
 196:.\source\rte/sc_speed.h ****  *
 197:.\source\rte/sc_speed.h ****  */
 198:.\source\rte/sc_speed.h **** inline RC_t RTE_SC_SPEED_setStatus( SC_SPEED_t * const signal, const RTE_signalStatus_t status )
 199:.\source\rte/sc_speed.h **** {
 200:.\source\rte/sc_speed.h ****    signal->status = status;
 201:.\source\rte/sc_speed.h ****    size_t taskNum=0;
 202:.\source\rte/sc_speed.h ****    
 203:.\source\rte/sc_speed.h ****    //Fire error events in case of invalid state
 204:.\source\rte/sc_speed.h ****    if (signal->status == RTE_SIGNALSTATUS_INVALID)
 205:.\source\rte/sc_speed.h ****    {
 206:.\source\rte/sc_speed.h **** 	    //Pointer to the Taskarray, containing the tasks receiving the onUpdate events
 207:.\source\rte/sc_speed.h **** 		TaskTypeArray* pTaskArray = signal->pSigCfg->onErrorTasks;
 208:.\source\rte/sc_speed.h **** 
 209:.\source\rte/sc_speed.h **** 		if (0 != signal->pSigCfg->evOnError && NULL != pTaskArray){
 210:.\source\rte/sc_speed.h **** 			for( taskNum=0 ; taskNum < signal->pSigCfg->onErrorTaskCount ;taskNum++){
 211:.\source\rte/sc_speed.h **** 				TaskType task = (*pTaskArray)[taskNum];
 212:.\source\rte/sc_speed.h **** 				SetEvent( task, signal->pSigCfg->evOnError);
 213:.\source\rte/sc_speed.h **** 			}
 214:.\source\rte/sc_speed.h **** 		}
 215:.\source\rte/sc_speed.h ****    }
 216:.\source\rte/sc_speed.h ****    
 217:.\source\rte/sc_speed.h ****    return RC_SUCCESS;
 218:.\source\rte/sc_speed.h **** }
 219:.\source\rte/sc_speed.h **** 
 220:.\source\rte/sc_speed.h **** 
 221:.\source\rte/sc_speed.h **** /**
 222:.\source\rte/sc_speed.h ****  * Returns the count of refreshing trials (refresh, set or set_raw) that failed.
 223:.\source\rte/sc_speed.h ****  * Prerquisite: The signal is refreshed cyclically
 224:.\source\rte/sc_speed.h ****  *
 225:.\source\rte/sc_speed.h ****  * @param  SC_SPEED_t * const signal: Pointer to the signal object
 226:.\source\rte/sc_speed.h ****  * @return uint32_t: Number of cycles since the signal has been updated for the last time
ARM GAS  C:\Users\saman\AppData\Local\Temp\ccHbNeFw.s 			page 7


 227:.\source\rte/sc_speed.h ****  */
 228:.\source\rte/sc_speed.h **** inline uint32_t RTE_SC_SPEED_getAge( const SC_SPEED_t * const signal )
 229:.\source\rte/sc_speed.h **** {
 230:.\source\rte/sc_speed.h ****    return signal->age;
  63              		.loc 2 230 0
  64 0012 154A     		ldr	r2, .L10
  65 0014 5268     		ldr	r2, [r2, #4]
  66              	.LVL5:
  67              	.LBE16:
  68              	.LBE15:
  55:source\asw/swc_engine.c ****     }
  56:source\asw/swc_engine.c ****     
  57:source\asw/swc_engine.c ****     speed_age = RTE_SC_SPEED_getAge(&SO_SPEED_signal);
  58:source\asw/swc_engine.c ****     if(speed_age < 100)
  69              		.loc 1 58 0
  70 0016 632A     		cmp	r2, #99
  71 0018 00D8     		bhi	.L3
  72              	.LVL6:
  59:source\asw/swc_engine.c ****     {
  60:source\asw/swc_engine.c ****         engine.engine_value = speed.speed_value;
  73              		.loc 1 60 0
  74 001a 0B46     		mov	r3, r1
  75              	.LVL7:
  76              	.L3:
  77              	.LBB17:
  78              	.LBB18:
  79              		.file 3 ".\\source\\rte/sc_engine.h"
   1:.\source\rte/sc_engine.h **** 
   2:.\source\rte/sc_engine.h **** 
   3:.\source\rte/sc_engine.h **** /**
   4:.\source\rte/sc_engine.h ****  *  file    SC_ENGINE_signal.h
   5:.\source\rte/sc_engine.h ****  *
   6:.\source\rte/sc_engine.h ****  *  brief   signal base class for signal sc_engine
   7:.\source\rte/sc_engine.h ****  *
   8:.\source\rte/sc_engine.h ****  *  author  Autogenerated, Peter Fromm       <peter.fromm@h-da.de>
   9:.\source\rte/sc_engine.h ****  *
  10:.\source\rte/sc_engine.h ****  * description: Signalclass representing engine
  11:.\source\rte/sc_engine.h ****  * name: sc_engine
  12:.\source\rte/sc_engine.h ****  * shortname: engine
  13:.\source\rte/sc_engine.h ****  *
  14:.\source\rte/sc_engine.h ****  */
  15:.\source\rte/sc_engine.h **** 
  16:.\source\rte/sc_engine.h **** 
  17:.\source\rte/sc_engine.h **** 
  18:.\source\rte/sc_engine.h **** #ifndef SC_ENGINE_SIGNAL_H_INCLUDED
  19:.\source\rte/sc_engine.h **** #define SC_ENGINE_SIGNAL_H_INCLUDED
  20:.\source\rte/sc_engine.h **** 
  21:.\source\rte/sc_engine.h **** /*================================================[ public includes  ]=============================
  22:.\source\rte/sc_engine.h **** #include "global.h"
  23:.\source\rte/sc_engine.h **** #include "project.h"
  24:.\source\rte/sc_engine.h **** #include "rte.h"
  25:.\source\rte/sc_engine.h **** #include "rte_types.h"
  26:.\source\rte/sc_engine.h **** 
  27:.\source\rte/sc_engine.h **** #include "sc_engine_type.h"
  28:.\source\rte/sc_engine.h **** 
  29:.\source\rte/sc_engine.h **** 
  30:.\source\rte/sc_engine.h **** /**************************************************************************************************
ARM GAS  C:\Users\saman\AppData\Local\Temp\ccHbNeFw.s 			page 8


  31:.\source\rte/sc_engine.h **** /* The driver API block																						*/
  32:.\source\rte/sc_engine.h **** /**************************************************************************************************
  33:.\source\rte/sc_engine.h ****                                                                                                    
  34:.\source\rte/sc_engine.h **** /**
  35:.\source\rte/sc_engine.h ****  *  Definition of function types for driver interfaces.
  36:.\source\rte/sc_engine.h ****  *  I-Port
  37:.\source\rte/sc_engine.h ****  */
  38:.\source\rte/sc_engine.h **** typedef RC_t (*SC_ENGINE_driverIn_t)(SC_ENGINE_data_t * const);
  39:.\source\rte/sc_engine.h **** 
  40:.\source\rte/sc_engine.h **** /**
  41:.\source\rte/sc_engine.h ****  *  Definition of function types for driver interfaces.
  42:.\source\rte/sc_engine.h ****  *  O-Port
  43:.\source\rte/sc_engine.h ****  */
  44:.\source\rte/sc_engine.h **** typedef RC_t (*SC_ENGINE_driverOut_t)( const SC_ENGINE_data_t * const);
  45:.\source\rte/sc_engine.h **** 
  46:.\source\rte/sc_engine.h **** 
  47:.\source\rte/sc_engine.h **** /**************************************************************************************************
  48:.\source\rte/sc_engine.h **** /* The signal configuration API block																				*/
  49:.\source\rte/sc_engine.h **** /**************************************************************************************************
  50:.\source\rte/sc_engine.h **** 
  51:.\source\rte/sc_engine.h **** /**
  52:.\source\rte/sc_engine.h ****  * Instances of the struct SC_ENGINE_cfg_t represent the signal object configuration.
  53:.\source\rte/sc_engine.h ****  */
  54:.\source\rte/sc_engine.h **** struct SC_ENGINE_cfg_s
  55:.\source\rte/sc_engine.h **** {
  56:.\source\rte/sc_engine.h ****     /**
  57:.\source\rte/sc_engine.h ****      * Function pointer to the input driver
  58:.\source\rte/sc_engine.h ****      */
  59:.\source\rte/sc_engine.h ****     SC_ENGINE_driverIn_t const inDriver;
  60:.\source\rte/sc_engine.h **** 
  61:.\source\rte/sc_engine.h ****     /**
  62:.\source\rte/sc_engine.h ****      * Function pointer to the output driver table
  63:.\source\rte/sc_engine.h ****      */
  64:.\source\rte/sc_engine.h ****    SC_ENGINE_driverOut_t const outDriver;
  65:.\source\rte/sc_engine.h ****    
  66:.\source\rte/sc_engine.h ****     /**
  67:.\source\rte/sc_engine.h ****      * Event onUpdate
  68:.\source\rte/sc_engine.h ****      */
  69:.\source\rte/sc_engine.h ****     EventMaskType const evOnUpdate;
  70:.\source\rte/sc_engine.h ****     
  71:.\source\rte/sc_engine.h ****     
  72:.\source\rte/sc_engine.h ****     /**
  73:.\source\rte/sc_engine.h ****      * Event onError
  74:.\source\rte/sc_engine.h ****      */
  75:.\source\rte/sc_engine.h ****     EventMaskType const evOnError;
  76:.\source\rte/sc_engine.h ****     
  77:.\source\rte/sc_engine.h ****     /**
  78:.\source\rte/sc_engine.h ****      * Task Count onUpdate
  79:.\source\rte/sc_engine.h ****      */
  80:.\source\rte/sc_engine.h ****     size_t const onUpdateTaskCount;
  81:.\source\rte/sc_engine.h **** 
  82:.\source\rte/sc_engine.h ****     /**
  83:.\source\rte/sc_engine.h ****      * Task List onUpdate
  84:.\source\rte/sc_engine.h ****      */
  85:.\source\rte/sc_engine.h ****     TaskTypeArray* const onUpdateTasks;
  86:.\source\rte/sc_engine.h ****     
  87:.\source\rte/sc_engine.h ****     /**
ARM GAS  C:\Users\saman\AppData\Local\Temp\ccHbNeFw.s 			page 9


  88:.\source\rte/sc_engine.h ****      * Task Count onError
  89:.\source\rte/sc_engine.h ****      */
  90:.\source\rte/sc_engine.h ****     size_t const onErrorTaskCount;
  91:.\source\rte/sc_engine.h **** 
  92:.\source\rte/sc_engine.h ****     /**
  93:.\source\rte/sc_engine.h ****      * Task List onError
  94:.\source\rte/sc_engine.h ****      */
  95:.\source\rte/sc_engine.h ****     TaskTypeArray* const onErrorTasks;
  96:.\source\rte/sc_engine.h **** 	
  97:.\source\rte/sc_engine.h **** 	
  98:.\source\rte/sc_engine.h **** 	/**
  99:.\source\rte/sc_engine.h **** 	 * Ressourse is active? We need an additional boolean as a ressource value 0 is valid.
 100:.\source\rte/sc_engine.h **** 	 */
 101:.\source\rte/sc_engine.h **** 	 boolean_t const resourceActive;
 102:.\source\rte/sc_engine.h **** 	 
 103:.\source\rte/sc_engine.h **** 	/**
 104:.\source\rte/sc_engine.h **** 	 * Ressourse 
 105:.\source\rte/sc_engine.h **** 	 */
 106:.\source\rte/sc_engine.h **** 	 ResourceType const resource;
 107:.\source\rte/sc_engine.h **** 
 108:.\source\rte/sc_engine.h **** };                                                                                                 
 109:.\source\rte/sc_engine.h **** typedef const struct SC_ENGINE_cfg_s SC_ENGINE_cfg_t;
 110:.\source\rte/sc_engine.h ****                               
 111:.\source\rte/sc_engine.h **** /**************************************************************************************************
 112:.\source\rte/sc_engine.h **** /* The data interface block																							*/
 113:.\source\rte/sc_engine.h **** /**************************************************************************************************
 114:.\source\rte/sc_engine.h **** 
 115:.\source\rte/sc_engine.h ****                                                                                                    
 116:.\source\rte/sc_engine.h **** 							  
 117:.\source\rte/sc_engine.h **** /**
 118:.\source\rte/sc_engine.h ****  * Instances of the struct SC_ENGINE_t represent the signal objects.
 119:.\source\rte/sc_engine.h ****  * A signal object contains the current application value 'value' as well as relevant meta data.
 120:.\source\rte/sc_engine.h ****  */
 121:.\source\rte/sc_engine.h **** struct SC_ENGINE_s
 122:.\source\rte/sc_engine.h **** {                                                                                                  
 123:.\source\rte/sc_engine.h **** 
 124:.\source\rte/sc_engine.h **** 	/**
 125:.\source\rte/sc_engine.h **** 	 * Data buffer for the application value
 126:.\source\rte/sc_engine.h **** 	 */
 127:.\source\rte/sc_engine.h ****     SC_ENGINE_data_t value;
 128:.\source\rte/sc_engine.h **** 
 129:.\source\rte/sc_engine.h ****     /**
 130:.\source\rte/sc_engine.h ****      * Current signal status
 131:.\source\rte/sc_engine.h ****      */
 132:.\source\rte/sc_engine.h ****     RTE_signalStatus_t status;
 133:.\source\rte/sc_engine.h **** 
 134:.\source\rte/sc_engine.h ****     /**
 135:.\source\rte/sc_engine.h ****      * Current age of the signal (in calling cycles)
 136:.\source\rte/sc_engine.h ****      */
 137:.\source\rte/sc_engine.h ****     uint32_t age;
 138:.\source\rte/sc_engine.h **** 
 139:.\source\rte/sc_engine.h ****     /**
 140:.\source\rte/sc_engine.h ****      * Pointer to the signal configuration
 141:.\source\rte/sc_engine.h ****      */
 142:.\source\rte/sc_engine.h **** 	const SC_ENGINE_cfg_t * const    pSigCfg;
 143:.\source\rte/sc_engine.h **** 
 144:.\source\rte/sc_engine.h **** };                                                                                                 
ARM GAS  C:\Users\saman\AppData\Local\Temp\ccHbNeFw.s 			page 10


 145:.\source\rte/sc_engine.h **** typedef struct SC_ENGINE_s SC_ENGINE_t;
 146:.\source\rte/sc_engine.h **** 
 147:.\source\rte/sc_engine.h **** /**************************************************************************************************
 148:.\source\rte/sc_engine.h **** /* Signal initialisation   																							*/
 149:.\source\rte/sc_engine.h **** /**************************************************************************************************
 150:.\source\rte/sc_engine.h **** 
 151:.\source\rte/sc_engine.h **** /**
 152:.\source\rte/sc_engine.h ****  * Initializes a signal instance with a passed init value.
 153:.\source\rte/sc_engine.h ****  * Depending on the configured conversion or scaling function the raw_value will be calculated.
 154:.\source\rte/sc_engine.h ****  * Signal status will change from RTE_SIGNALSTATUS_STARTUP to RTE_SIGNALSTATUS_INITIALIZED.
 155:.\source\rte/sc_engine.h ****  *
 156:.\source\rte/sc_engine.h ****  * @param  SC_ENGINE_t * const signal: Pointer to the signal object which will be initialised
 157:.\source\rte/sc_engine.h ****  * @return RC_t: standard return code, currently only RC_SUCCESS
 158:.\source\rte/sc_engine.h ****  *
 159:.\source\rte/sc_engine.h ****  **/
 160:.\source\rte/sc_engine.h **** inline RC_t RTE_SC_ENGINE_init( SC_ENGINE_t * const signal )
 161:.\source\rte/sc_engine.h **** {                                                                                                  
 162:.\source\rte/sc_engine.h **** 
 163:.\source\rte/sc_engine.h ****    RC_t ret = RC_SUCCESS;
 164:.\source\rte/sc_engine.h **** 
 165:.\source\rte/sc_engine.h ****    //Set value and raw value
 166:.\source\rte/sc_engine.h ****    signal->value  = SC_ENGINE_INIT_DATA;
 167:.\source\rte/sc_engine.h ****    signal->age    = 0;
 168:.\source\rte/sc_engine.h ****    signal->status = RTE_SIGNALSTATUS_INITIALIZED;
 169:.\source\rte/sc_engine.h **** 
 170:.\source\rte/sc_engine.h ****    return ret;
 171:.\source\rte/sc_engine.h **** }
 172:.\source\rte/sc_engine.h **** 
 173:.\source\rte/sc_engine.h **** /**************************************************************************************************
 174:.\source\rte/sc_engine.h **** /* Status and timeout control																						*/
 175:.\source\rte/sc_engine.h **** /**************************************************************************************************
 176:.\source\rte/sc_engine.h **** 
 177:.\source\rte/sc_engine.h **** /**
 178:.\source\rte/sc_engine.h ****  *  Returns the current signal status of the passed signal instance.
 179:.\source\rte/sc_engine.h ****  *
 180:.\source\rte/sc_engine.h ****  * @param  SC_ENGINE_t * const signal: Pointer to the signal object
 181:.\source\rte/sc_engine.h ****  * @return  sig_status_t: The current signal status
 182:.\source\rte/sc_engine.h ****  *
 183:.\source\rte/sc_engine.h ****  **/
 184:.\source\rte/sc_engine.h **** inline RTE_signalStatus_t RTE_SC_ENGINE_getStatus( const SC_ENGINE_t * const signal )
 185:.\source\rte/sc_engine.h **** {
 186:.\source\rte/sc_engine.h ****    return signal->status;
 187:.\source\rte/sc_engine.h **** }
 188:.\source\rte/sc_engine.h **** 
 189:.\source\rte/sc_engine.h **** 
 190:.\source\rte/sc_engine.h **** /**
 191:.\source\rte/sc_engine.h ****  *  Sets a new signal status of the passed signal instance by passing the new status.
 192:.\source\rte/sc_engine.h ****  *
 193:.\source\rte/sc_engine.h ****  * @param  SC_ENGINE_t * const signal: Pointer to the signal object
 194:.\source\rte/sc_engine.h ****  * @param  const sig_status_t status: New signal status
 195:.\source\rte/sc_engine.h ****  * @return RC_t: standard return code, currently only RC_SUCCESS
 196:.\source\rte/sc_engine.h ****  *
 197:.\source\rte/sc_engine.h ****  */
 198:.\source\rte/sc_engine.h **** inline RC_t RTE_SC_ENGINE_setStatus( SC_ENGINE_t * const signal, const RTE_signalStatus_t status )
 199:.\source\rte/sc_engine.h **** {
 200:.\source\rte/sc_engine.h ****    signal->status = status;
 201:.\source\rte/sc_engine.h ****    size_t taskNum=0;
ARM GAS  C:\Users\saman\AppData\Local\Temp\ccHbNeFw.s 			page 11


 202:.\source\rte/sc_engine.h ****    
 203:.\source\rte/sc_engine.h ****    //Fire error events in case of invalid state
 204:.\source\rte/sc_engine.h ****    if (signal->status == RTE_SIGNALSTATUS_INVALID)
 205:.\source\rte/sc_engine.h ****    {
 206:.\source\rte/sc_engine.h **** 	    //Pointer to the Taskarray, containing the tasks receiving the onUpdate events
 207:.\source\rte/sc_engine.h **** 		TaskTypeArray* pTaskArray = signal->pSigCfg->onErrorTasks;
 208:.\source\rte/sc_engine.h **** 
 209:.\source\rte/sc_engine.h **** 		if (0 != signal->pSigCfg->evOnError && NULL != pTaskArray){
 210:.\source\rte/sc_engine.h **** 			for( taskNum=0 ; taskNum < signal->pSigCfg->onErrorTaskCount ;taskNum++){
 211:.\source\rte/sc_engine.h **** 				TaskType task = (*pTaskArray)[taskNum];
 212:.\source\rte/sc_engine.h **** 				SetEvent( task, signal->pSigCfg->evOnError);
 213:.\source\rte/sc_engine.h **** 			}
 214:.\source\rte/sc_engine.h **** 		}
 215:.\source\rte/sc_engine.h ****    }
 216:.\source\rte/sc_engine.h ****    
 217:.\source\rte/sc_engine.h ****    return RC_SUCCESS;
 218:.\source\rte/sc_engine.h **** }
 219:.\source\rte/sc_engine.h **** 
 220:.\source\rte/sc_engine.h **** 
 221:.\source\rte/sc_engine.h **** /**
 222:.\source\rte/sc_engine.h ****  * Returns the count of refreshing trials (refresh, set or set_raw) that failed.
 223:.\source\rte/sc_engine.h ****  * Prerquisite: The signal is refreshed cyclically
 224:.\source\rte/sc_engine.h ****  *
 225:.\source\rte/sc_engine.h ****  * @param  SC_ENGINE_t * const signal: Pointer to the signal object
 226:.\source\rte/sc_engine.h ****  * @return uint32_t: Number of cycles since the signal has been updated for the last time
 227:.\source\rte/sc_engine.h ****  */
 228:.\source\rte/sc_engine.h **** inline uint32_t RTE_SC_ENGINE_getAge( const SC_ENGINE_t * const signal )
 229:.\source\rte/sc_engine.h **** {
 230:.\source\rte/sc_engine.h ****    return signal->age;
 231:.\source\rte/sc_engine.h **** }
 232:.\source\rte/sc_engine.h **** 
 233:.\source\rte/sc_engine.h **** /**
 234:.\source\rte/sc_engine.h ****  * Should be called by application or driver if no new value can be provided.
 235:.\source\rte/sc_engine.h ****  * @param  SC_ENGINE_t * const signal: Pointer to the signal object
 236:.\source\rte/sc_engine.h ****  * @param uint32_t increment: incrementvalue, typically in [ms]
 237:.\source\rte/sc_engine.h ****  * @return void
 238:.\source\rte/sc_engine.h ****  */
 239:.\source\rte/sc_engine.h **** inline void RTE_SC_ENGINE_incAge(  SC_ENGINE_t * const signal , uint32_t increment)
 240:.\source\rte/sc_engine.h **** {
 241:.\source\rte/sc_engine.h **** 	   //Hack....
 242:.\source\rte/sc_engine.h **** 	   if ( 0xFFFF0000 > (signal->age + increment) )
 243:.\source\rte/sc_engine.h **** 	   {
 244:.\source\rte/sc_engine.h **** 	      signal->age += increment;
 245:.\source\rte/sc_engine.h **** 	   }
 246:.\source\rte/sc_engine.h **** }
 247:.\source\rte/sc_engine.h **** 
 248:.\source\rte/sc_engine.h **** 
 249:.\source\rte/sc_engine.h **** /**************************************************************************************************
 250:.\source\rte/sc_engine.h **** /* Application Data read/write Interface																			*/
 251:.\source\rte/sc_engine.h **** /**************************************************************************************************
 252:.\source\rte/sc_engine.h **** 
 253:.\source\rte/sc_engine.h **** /**
 254:.\source\rte/sc_engine.h ****  * Returns the current application value as pointer to the signal payload.
 255:.\source\rte/sc_engine.h ****  * Careful: This is not threadsafe!!!
 256:.\source\rte/sc_engine.h ****  *
 257:.\source\rte/sc_engine.h ****  * @param  SC_ENGINE_t * const signal: Pointer to the signal object
 258:.\source\rte/sc_engine.h ****  * @return sc_engine_data_t*: pointer to the current value of the application data buffer
ARM GAS  C:\Users\saman\AppData\Local\Temp\ccHbNeFw.s 			page 12


 259:.\source\rte/sc_engine.h ****  *
 260:.\source\rte/sc_engine.h ****  **/
 261:.\source\rte/sc_engine.h **** inline SC_ENGINE_data_t* RTE_SC_ENGINE_getPtr( SC_ENGINE_t * const signal )
 262:.\source\rte/sc_engine.h **** {               
 263:.\source\rte/sc_engine.h ****    //Todo: Critical region cannot be protected using return values																						
 264:.\source\rte/sc_engine.h ****    return &(signal->value);                                                                        
 265:.\source\rte/sc_engine.h **** }
 266:.\source\rte/sc_engine.h **** 
 267:.\source\rte/sc_engine.h **** /**
 268:.\source\rte/sc_engine.h ****  * Returns the current application value of the passed signal instance.
 269:.\source\rte/sc_engine.h ****  *
 270:.\source\rte/sc_engine.h ****  * @param  SC_ENGINE_t * const signal: Pointer to the signal object
 271:.\source\rte/sc_engine.h ****  * @return sc_engine_data_t: current value of the application data buffer
 272:.\source\rte/sc_engine.h ****  *
 273:.\source\rte/sc_engine.h ****  **/
 274:.\source\rte/sc_engine.h **** inline SC_ENGINE_data_t RTE_SC_ENGINE_get( const SC_ENGINE_t * const signal )
 275:.\source\rte/sc_engine.h **** {               
 276:.\source\rte/sc_engine.h ****    //Todo: Critical region cannot be protected using return values																						
 277:.\source\rte/sc_engine.h ****    return signal->value;                                                                           
 278:.\source\rte/sc_engine.h **** }                                                                                                  
 279:.\source\rte/sc_engine.h ****                                                                                                    
 280:.\source\rte/sc_engine.h **** /**
 281:.\source\rte/sc_engine.h ****  * Returns the current application value of the passed signal instance threadsafe.
 282:.\source\rte/sc_engine.h ****  *
 283:.\source\rte/sc_engine.h ****  * @param  SC_ENGINE_t * const signal: Pointer to the signal object
 284:.\source\rte/sc_engine.h ****  * @param  SC_ENGINE_data_t* data: Pointer to the return data Pointer to the signal object
 285:.\source\rte/sc_engine.h ****  * @return RC_SUCCESS
 286:.\source\rte/sc_engine.h ****  *
 287:.\source\rte/sc_engine.h ****  **/
 288:.\source\rte/sc_engine.h **** inline RC_t RTE_SC_ENGINE_getThreadSafe( const SC_ENGINE_t * const signal, SC_ENGINE_data_t * const
 289:.\source\rte/sc_engine.h **** {    
 290:.\source\rte/sc_engine.h ****    if (TRUE == signal->pSigCfg->resourceActive) GetResource(signal->pSigCfg->resource);
 291:.\source\rte/sc_engine.h ****    *data = signal->value;
 292:.\source\rte/sc_engine.h ****    if (TRUE == signal->pSigCfg->resourceActive) ReleaseResource(signal->pSigCfg->resource);        
 293:.\source\rte/sc_engine.h **** 
 294:.\source\rte/sc_engine.h ****    return RC_SUCCESS;                                                                   
 295:.\source\rte/sc_engine.h ****    
 296:.\source\rte/sc_engine.h **** }                                                                                                  
 297:.\source\rte/sc_engine.h ****                                                                                                    
 298:.\source\rte/sc_engine.h **** /**
 299:.\source\rte/sc_engine.h ****  * Sets a new application value to the passed signal instance by passing the new value.
 300:.\source\rte/sc_engine.h ****  * The corresponding driver raw value will be calculated immediately by using the default conversio
 301:.\source\rte/sc_engine.h ****  * signal specific scaling function.
 302:.\source\rte/sc_engine.h ****  * The signal age will be set to 0 and the new status will be 'RTE_SIGNALSTATUS_VALID'.
 303:.\source\rte/sc_engine.h ****  *
 304:.\source\rte/sc_engine.h ****  * @param  SC_ENGINE_t * const signal: Pointer to the signal object
 305:.\source\rte/sc_engine.h ****  * @param  sc_engine_data_t const value: value for the application data buffer
 306:.\source\rte/sc_engine.h ****  * @return RC_t: standard return code, currently only RC_SUCCESS
 307:.\source\rte/sc_engine.h ****  *
 308:.\source\rte/sc_engine.h ****  **/
 309:.\source\rte/sc_engine.h **** inline RC_t RTE_SC_ENGINE_set(SC_ENGINE_t * const signal, const SC_ENGINE_data_t value  )
 310:.\source\rte/sc_engine.h **** {
 311:.\source\rte/sc_engine.h **** 
 312:.\source\rte/sc_engine.h ****    RC_t ret = RC_SUCCESS;
 313:.\source\rte/sc_engine.h ****    size_t taskNum=0;
 314:.\source\rte/sc_engine.h **** 
 315:.\source\rte/sc_engine.h **** 
ARM GAS  C:\Users\saman\AppData\Local\Temp\ccHbNeFw.s 			page 13


 316:.\source\rte/sc_engine.h ****    if (TRUE == signal->pSigCfg->resourceActive) GetResource(signal->pSigCfg->resource);
  80              		.loc 3 316 0
  81 001c 134A     		ldr	r2, .L10+4
  82 001e 9168     		ldr	r1, [r2, #8]
  83              	.LVL8:
 317:.\source\rte/sc_engine.h ****    signal->value  = value;
  84              		.loc 3 317 0
  85 0020 1370     		strb	r3, [r2]
 318:.\source\rte/sc_engine.h ****    signal->age    = 0;
  86              		.loc 3 318 0
  87 0022 0023     		movs	r3, #0
  88              	.LVL9:
  89 0024 5360     		str	r3, [r2, #4]
 319:.\source\rte/sc_engine.h ****    signal->status = RTE_SIGNALSTATUS_VALID;
  90              		.loc 3 319 0
  91 0026 0223     		movs	r3, #2
  92 0028 5370     		strb	r3, [r2, #1]
 320:.\source\rte/sc_engine.h ****    if (TRUE == signal->pSigCfg->resourceActive) ReleaseResource(signal->pSigCfg->resource);
 321:.\source\rte/sc_engine.h **** 
 322:.\source\rte/sc_engine.h ****    //Pointer to the Taskarray, containing the tasks receiving the onUpdate events
 323:.\source\rte/sc_engine.h ****    TaskTypeArray* pTaskArray = signal->pSigCfg->onUpdateTasks;
  93              		.loc 3 323 0
  94 002a 4D69     		ldr	r5, [r1, #20]
  95              	.LVL10:
 324:.\source\rte/sc_engine.h **** 
 325:.\source\rte/sc_engine.h ****    if (0 != signal->pSigCfg->evOnUpdate && NULL != pTaskArray){
  96              		.loc 3 325 0
  97 002c 8B68     		ldr	r3, [r1, #8]
  98 002e 73B1     		cbz	r3, .L4
  99 0030 3DB9     		cbnz	r5, .L8
 100 0032 0CE0     		b	.L4
 101              	.LVL11:
 102              	.L6:
 103              	.LBB19:
 326:.\source\rte/sc_engine.h ****       for( taskNum=0 ; taskNum < signal->pSigCfg->onUpdateTaskCount ;taskNum++){
 327:.\source\rte/sc_engine.h **** 		  
 328:.\source\rte/sc_engine.h ****           TaskType task = (*pTaskArray)[taskNum];
 329:.\source\rte/sc_engine.h **** 	      SetEvent( task, signal->pSigCfg->evOnUpdate);
 104              		.loc 3 329 0
 105 0034 9968     		ldr	r1, [r3, #8]
 106 0036 55F82400 		ldr	r0, [r5, r4, lsl #2]
 107 003a FFF7FEFF 		bl	EE_oo_SetEvent
 108              	.LVL12:
 109              	.LBE19:
 326:.\source\rte/sc_engine.h ****       for( taskNum=0 ; taskNum < signal->pSigCfg->onUpdateTaskCount ;taskNum++){
 110              		.loc 3 326 0
 111 003e 0134     		adds	r4, r4, #1
 112              	.LVL13:
 113 0040 00E0     		b	.L5
 114              	.LVL14:
 115              	.L8:
 325:.\source\rte/sc_engine.h ****       for( taskNum=0 ; taskNum < signal->pSigCfg->onUpdateTaskCount ;taskNum++){
 116              		.loc 3 325 0
 117 0042 0024     		movs	r4, #0
 118              	.LVL15:
 119              	.L5:
 326:.\source\rte/sc_engine.h ****       for( taskNum=0 ; taskNum < signal->pSigCfg->onUpdateTaskCount ;taskNum++){
ARM GAS  C:\Users\saman\AppData\Local\Temp\ccHbNeFw.s 			page 14


 120              		.loc 3 326 0
 121 0044 094B     		ldr	r3, .L10+4
 122 0046 9B68     		ldr	r3, [r3, #8]
 123 0048 1A69     		ldr	r2, [r3, #16]
 124 004a 9442     		cmp	r4, r2
 125 004c F2D3     		bcc	.L6
 126              	.LVL16:
 127              	.L4:
 128              	.LBE18:
 129              	.LBE17:
 130              	.LBB20:
 131              	.LBB21:
 330:.\source\rte/sc_engine.h ****       }
 331:.\source\rte/sc_engine.h ****    }
 332:.\source\rte/sc_engine.h **** 
 333:.\source\rte/sc_engine.h ****    return ret;
 334:.\source\rte/sc_engine.h **** }                                                                                                  
 335:.\source\rte/sc_engine.h ****                                                                                                    
 336:.\source\rte/sc_engine.h ****                                                                                                    
 337:.\source\rte/sc_engine.h **** /**************************************************************************************************
 338:.\source\rte/sc_engine.h **** /* Call functions to the connected drivers																			*/
 339:.\source\rte/sc_engine.h **** /**************************************************************************************************
 340:.\source\rte/sc_engine.h **** 
 341:.\source\rte/sc_engine.h ****                                                                                                    
 342:.\source\rte/sc_engine.h **** /**
 343:.\source\rte/sc_engine.h ****  *  Calls the connected driver interface to get a new value.
 344:.\source\rte/sc_engine.h ****  *
 345:.\source\rte/sc_engine.h ****  * @param SC_ENGINE_t * const signal: Pointer to the signal object
 346:.\source\rte/sc_engine.h ****  * @return  RC_t: Return value of the driver call
 347:.\source\rte/sc_engine.h ****  *
 348:.\source\rte/sc_engine.h ****  */
 349:.\source\rte/sc_engine.h **** inline RC_t RTE_SC_ENGINE_pullPort( SC_ENGINE_t * const signal )
 350:.\source\rte/sc_engine.h **** {                                                                                                  
 351:.\source\rte/sc_engine.h ****    RC_t ret = RC_SUCCESS;
 352:.\source\rte/sc_engine.h **** 
 353:.\source\rte/sc_engine.h ****                                                                                                    
 354:.\source\rte/sc_engine.h ****    if ( NULL != signal->pSigCfg->inDriver )
 355:.\source\rte/sc_engine.h ****    {
 356:.\source\rte/sc_engine.h **** 	  SC_ENGINE_data_t value = signal->value;
 357:.\source\rte/sc_engine.h ****       ret = signal->pSigCfg->inDriver(&value);
 358:.\source\rte/sc_engine.h ****                                                                                                    
 359:.\source\rte/sc_engine.h ****       if ( ret == RC_SUCCESS )                                                                     
 360:.\source\rte/sc_engine.h ****       {
 361:.\source\rte/sc_engine.h ****     	  //Critical Section
 362:.\source\rte/sc_engine.h ****     	  RTE_SC_ENGINE_set(signal, value);
 363:.\source\rte/sc_engine.h ****       }
 364:.\source\rte/sc_engine.h ****       else
 365:.\source\rte/sc_engine.h ****       {
 366:.\source\rte/sc_engine.h **** 		  //Signal is invalid. Error event (if present) will be fired
 367:.\source\rte/sc_engine.h **** 		  RTE_SC_ENGINE_setStatus(signal, RTE_SIGNALSTATUS_INVALID);
 368:.\source\rte/sc_engine.h ****       }
 369:.\source\rte/sc_engine.h **** 
 370:.\source\rte/sc_engine.h ****    }                                                                                               
 371:.\source\rte/sc_engine.h ****                                                                                                    
 372:.\source\rte/sc_engine.h ****    return ret;                                                                                     
 373:.\source\rte/sc_engine.h **** }                                                                                                  
 374:.\source\rte/sc_engine.h ****                                                                                                    
ARM GAS  C:\Users\saman\AppData\Local\Temp\ccHbNeFw.s 			page 15


 375:.\source\rte/sc_engine.h **** /**
 376:.\source\rte/sc_engine.h ****  *  Calls the connected driver interfaces to send a value. Value will not be sent if it is INVALID.
 377:.\source\rte/sc_engine.h ****  *
 378:.\source\rte/sc_engine.h ****  * @param SC_ENGINE_t * const signal: Pointer to the signal object
 379:.\source\rte/sc_engine.h ****  * @return  RC_t: Return value of the driver call
 380:.\source\rte/sc_engine.h ****  *
 381:.\source\rte/sc_engine.h ****  **/
 382:.\source\rte/sc_engine.h **** inline RC_t RTE_SC_ENGINE_pushPort( const SC_ENGINE_t * const signal )
 383:.\source\rte/sc_engine.h **** {                                                                                                  
 384:.\source\rte/sc_engine.h ****    RC_t ret = RC_ERROR;
 385:.\source\rte/sc_engine.h **** 
 386:.\source\rte/sc_engine.h ****    if (RTE_SIGNALSTATUS_VALID == signal->status)
 132              		.loc 3 386 0
 133 004e 074B     		ldr	r3, .L10+4
 134 0050 5B78     		ldrb	r3, [r3, #1]	@ zero_extendqisi2
 135 0052 022B     		cmp	r3, #2
 136 0054 03D1     		bne	.L7
 387:.\source\rte/sc_engine.h ****    {
 388:.\source\rte/sc_engine.h **** 	   ret = signal->pSigCfg->outDriver(&(signal->value));
 137              		.loc 3 388 0
 138 0056 0548     		ldr	r0, .L10+4
 139 0058 8368     		ldr	r3, [r0, #8]
 140 005a 5B68     		ldr	r3, [r3, #4]
 141 005c 9847     		blx	r3
 142              	.LVL17:
 143              	.L7:
 144              	.LBE21:
 145              	.LBE20:
  61:source\asw/swc_engine.c ****     }
  62:source\asw/swc_engine.c ****     else{
  63:source\asw/swc_engine.c ****         engine.engine_value = 0;
  64:source\asw/swc_engine.c ****     }
  65:source\asw/swc_engine.c ****     RTE_SC_ENGINE_set(&SO_ENGINE_signal, engine);
  66:source\asw/swc_engine.c ****     RTE_SC_ENGINE_pushPort(&SO_ENGINE_signal);
  67:source\asw/swc_engine.c ****     WD_Alive(engine_run);
 146              		.loc 1 67 0
 147 005e 0220     		movs	r0, #2
 148 0060 FFF7FEFF 		bl	WD_Alive
 149              	.LVL18:
 150 0064 38BD     		pop	{r3, r4, r5, pc}
 151              	.L11:
 152 0066 00BF     		.align	2
 153              	.L10:
 154 0068 00000000 		.word	SO_SPEED_signal
 155 006c 00000000 		.word	SO_ENGINE_signal
 156              		.cfi_endproc
 157              	.LFE154:
 158              		.size	ENGINE_set_engine_run, .-ENGINE_set_engine_run
 159              		.text
 160              	.Letext0:
 161              		.file 4 "c:\\program files (x86)\\cypress\\psoc creator\\4.4\\psoc creator\\import\\gnu\\arm\\5.4.
 162              		.file 5 "c:\\program files (x86)\\cypress\\psoc creator\\4.4\\psoc creator\\import\\gnu\\arm\\5.4.
 163              		.file 6 "c:\\program files (x86)\\cypress\\psoc creator\\4.4\\psoc creator\\import\\gnu\\arm\\5.4.
 164              		.file 7 "Generated_Source\\PSoC5/ErikaOS_1_common_ee_types.inc"
 165              		.file 8 "Generated_Source\\PSoC5/ErikaOS_1_cortex_mx_ee_cpu.inc"
 166              		.file 9 "Generated_Source\\PSoC5/ErikaOS_1_ee_oo_common.inc"
 167              		.file 10 ".\\source\\bsw/global.h"
ARM GAS  C:\Users\saman\AppData\Local\Temp\ccHbNeFw.s 			page 16


 168              		.file 11 ".\\source\\rte/rte_types.h"
 169              		.file 12 ".\\source\\rte/rte.h"
 170              		.file 13 ".\\source\\rte/sc_speed_type.h"
 171              		.file 14 ".\\source\\rte/sc_engine_type.h"
 172              		.file 15 "Generated_Source\\PSoC5/ErikaOS_1_ee_oo_intfunc.inc"
 173              		.file 16 "Generated_Source\\PSoC5/ErikaOS_1_cortex_mx_ee_context.inc"
 174              		.file 17 "Generated_Source\\PSoC5/ErikaOS_1_common_ee_primitives.inc"
 175              		.file 18 "Generated_Source\\PSoC5/core_cm3.h"
 176              		.file 19 ".\\source\\rte/sp_common.h"
 177              		.file 20 "Generated_Source\\PSoC5/ErikaOS_1_ee_oo_kernel.inc"
 178              		.file 21 "./watchdog.h"