ARM GAS  C:\Users\saman\AppData\Local\Temp\ccfvMB7E.s 			page 1


   1              		.syntax unified
   2              		.cpu cortex-m3
   3              		.fpu softvfp
   4              		.eabi_attribute 20, 1
   5              		.eabi_attribute 21, 1
   6              		.eabi_attribute 23, 3
   7              		.eabi_attribute 24, 1
   8              		.eabi_attribute 25, 1
   9              		.eabi_attribute 26, 1
  10              		.eabi_attribute 30, 1
  11              		.eabi_attribute 34, 1
  12              		.eabi_attribute 18, 4
  13              		.thumb
  14              		.syntax unified
  15              		.file	"swc_joystick.c"
  16              		.text
  17              	.Ltext0:
  18              		.cfi_sections	.debug_frame
  19              		.section	.text.JOYSTICK_joystick_rx_run,"ax",%progbits
  20              		.align	2
  21              		.global	JOYSTICK_joystick_rx_run
  22              		.thumb
  23              		.thumb_func
  24              		.type	JOYSTICK_joystick_rx_run, %function
  25              	JOYSTICK_joystick_rx_run:
  26              	.LFB154:
  27              		.file 1 "source\\asw\\swc_joystick.c"
   1:source\asw/swc_joystick.c **** /*
   2:source\asw/swc_joystick.c ****  * Filename: swc_joystick.c
   3:source\asw/swc_joystick.c ****  *
   4:source\asw/swc_joystick.c ****  * Author: Autogenerated by H-DA RTE Generator, (c) Prof. Fromm
   5:source\asw/swc_joystick.c ****  *
   6:source\asw/swc_joystick.c ****  * description: SWC for reading/sending joystick data
   7:source\asw/swc_joystick.c ****  * name: swc_joystick
   8:source\asw/swc_joystick.c ****  * shortname: joystick
   9:source\asw/swc_joystick.c ****  *
  10:source\asw/swc_joystick.c ****  */
  11:source\asw/swc_joystick.c **** 
  12:source\asw/swc_joystick.c **** #include "project.h"
  13:source\asw/swc_joystick.c **** #include "global.h"
  14:source\asw/swc_joystick.c **** #include "rte.h"
  15:source\asw/swc_joystick.c **** #include "rte_types.h"
  16:source\asw/swc_joystick.c **** #include "swc_joystick.h"
  17:source\asw/swc_joystick.c **** 
  18:source\asw/swc_joystick.c **** 
  19:source\asw/swc_joystick.c **** 
  20:source\asw/swc_joystick.c **** /* USER CODE START SWC_JOYSTICK_INCLUDE */
  21:source\asw/swc_joystick.c **** 
  22:source\asw/swc_joystick.c **** /* USER CODE END SWC_JOYSTICK_INCLUDE */
  23:source\asw/swc_joystick.c **** 
  24:source\asw/swc_joystick.c **** 
  25:source\asw/swc_joystick.c **** #include "sp_common.h"
  26:source\asw/swc_joystick.c **** 
  27:source\asw/swc_joystick.c **** /* USER CODE START SWC_JOYSTICK_USERDEFINITIONS */
  28:source\asw/swc_joystick.c **** 
  29:source\asw/swc_joystick.c **** /* USER CODE END SWC_JOYSTICK_USERDEFINITIONS */
  30:source\asw/swc_joystick.c **** 
ARM GAS  C:\Users\saman\AppData\Local\Temp\ccfvMB7E.s 			page 2


  31:source\asw/swc_joystick.c **** 
  32:source\asw/swc_joystick.c **** 
  33:source\asw/swc_joystick.c **** /*
  34:source\asw/swc_joystick.c ****  * component: swc_joystick
  35:source\asw/swc_joystick.c ****  * cycletime: 10
  36:source\asw/swc_joystick.c ****  * description: Runnable to update joystick signal through pullPort()
  37:source\asw/swc_joystick.c ****  * events: 
  38:source\asw/swc_joystick.c ****  * name: JOYSTICK_joystick_rx_run
  39:source\asw/swc_joystick.c ****  * shortname: joystick_rx
  40:source\asw/swc_joystick.c ****  * signalIN: 
  41:source\asw/swc_joystick.c ****  * signalOUT: so_joystick
  42:source\asw/swc_joystick.c ****  * task: tsk_io
  43:source\asw/swc_joystick.c ****  */
  44:source\asw/swc_joystick.c **** void JOYSTICK_joystick_rx_run(RTE_event ev){
  28              		.loc 1 44 0
  29              		.cfi_startproc
  30              		@ args = 0, pretend = 0, frame = 8
  31              		@ frame_needed = 0, uses_anonymous_args = 0
  32              	.LVL0:
  33 0000 30B5     		push	{r4, r5, lr}
  34              		.cfi_def_cfa_offset 12
  35              		.cfi_offset 4, -12
  36              		.cfi_offset 5, -8
  37              		.cfi_offset 14, -4
  38 0002 83B0     		sub	sp, sp, #12
  39              		.cfi_def_cfa_offset 24
  40              	.LVL1:
  41              	.LBB20:
  42              	.LBB21:
  43              		.file 2 ".\\source\\rte/sc_joystick.h"
   1:.\source\rte/sc_joystick.h **** 
   2:.\source\rte/sc_joystick.h **** 
   3:.\source\rte/sc_joystick.h **** /**
   4:.\source\rte/sc_joystick.h ****  *  file    SC_JOYSTICK_signal.h
   5:.\source\rte/sc_joystick.h ****  *
   6:.\source\rte/sc_joystick.h ****  *  brief   signal base class for signal sc_joystick
   7:.\source\rte/sc_joystick.h ****  *
   8:.\source\rte/sc_joystick.h ****  *  author  Autogenerated, Peter Fromm       <peter.fromm@h-da.de>
   9:.\source\rte/sc_joystick.h ****  *
  10:.\source\rte/sc_joystick.h ****  * description: Signalclass representing joystick
  11:.\source\rte/sc_joystick.h ****  * name: sc_joystick
  12:.\source\rte/sc_joystick.h ****  * shortname: joystick
  13:.\source\rte/sc_joystick.h ****  *
  14:.\source\rte/sc_joystick.h ****  */
  15:.\source\rte/sc_joystick.h **** 
  16:.\source\rte/sc_joystick.h **** 
  17:.\source\rte/sc_joystick.h **** 
  18:.\source\rte/sc_joystick.h **** #ifndef SC_JOYSTICK_SIGNAL_H_INCLUDED
  19:.\source\rte/sc_joystick.h **** #define SC_JOYSTICK_SIGNAL_H_INCLUDED
  20:.\source\rte/sc_joystick.h **** 
  21:.\source\rte/sc_joystick.h **** /*================================================[ public includes  ]=============================
  22:.\source\rte/sc_joystick.h **** #include "global.h"
  23:.\source\rte/sc_joystick.h **** #include "project.h"
  24:.\source\rte/sc_joystick.h **** #include "rte.h"
  25:.\source\rte/sc_joystick.h **** #include "rte_types.h"
  26:.\source\rte/sc_joystick.h **** 
  27:.\source\rte/sc_joystick.h **** #include "sc_joystick_type.h"
ARM GAS  C:\Users\saman\AppData\Local\Temp\ccfvMB7E.s 			page 3


  28:.\source\rte/sc_joystick.h **** 
  29:.\source\rte/sc_joystick.h **** 
  30:.\source\rte/sc_joystick.h **** /**************************************************************************************************
  31:.\source\rte/sc_joystick.h **** /* The driver API block																						*/
  32:.\source\rte/sc_joystick.h **** /**************************************************************************************************
  33:.\source\rte/sc_joystick.h ****                                                                                                    
  34:.\source\rte/sc_joystick.h **** /**
  35:.\source\rte/sc_joystick.h ****  *  Definition of function types for driver interfaces.
  36:.\source\rte/sc_joystick.h ****  *  I-Port
  37:.\source\rte/sc_joystick.h ****  */
  38:.\source\rte/sc_joystick.h **** typedef RC_t (*SC_JOYSTICK_driverIn_t)(SC_JOYSTICK_data_t * const);
  39:.\source\rte/sc_joystick.h **** 
  40:.\source\rte/sc_joystick.h **** /**
  41:.\source\rte/sc_joystick.h ****  *  Definition of function types for driver interfaces.
  42:.\source\rte/sc_joystick.h ****  *  O-Port
  43:.\source\rte/sc_joystick.h ****  */
  44:.\source\rte/sc_joystick.h **** typedef RC_t (*SC_JOYSTICK_driverOut_t)( const SC_JOYSTICK_data_t * const);
  45:.\source\rte/sc_joystick.h **** 
  46:.\source\rte/sc_joystick.h **** 
  47:.\source\rte/sc_joystick.h **** /**************************************************************************************************
  48:.\source\rte/sc_joystick.h **** /* The signal configuration API block																				*/
  49:.\source\rte/sc_joystick.h **** /**************************************************************************************************
  50:.\source\rte/sc_joystick.h **** 
  51:.\source\rte/sc_joystick.h **** /**
  52:.\source\rte/sc_joystick.h ****  * Instances of the struct SC_JOYSTICK_cfg_t represent the signal object configuration.
  53:.\source\rte/sc_joystick.h ****  */
  54:.\source\rte/sc_joystick.h **** struct SC_JOYSTICK_cfg_s
  55:.\source\rte/sc_joystick.h **** {
  56:.\source\rte/sc_joystick.h ****     /**
  57:.\source\rte/sc_joystick.h ****      * Function pointer to the input driver
  58:.\source\rte/sc_joystick.h ****      */
  59:.\source\rte/sc_joystick.h ****     SC_JOYSTICK_driverIn_t const inDriver;
  60:.\source\rte/sc_joystick.h **** 
  61:.\source\rte/sc_joystick.h ****     /**
  62:.\source\rte/sc_joystick.h ****      * Function pointer to the output driver table
  63:.\source\rte/sc_joystick.h ****      */
  64:.\source\rte/sc_joystick.h ****    SC_JOYSTICK_driverOut_t const outDriver;
  65:.\source\rte/sc_joystick.h ****    
  66:.\source\rte/sc_joystick.h ****     /**
  67:.\source\rte/sc_joystick.h ****      * Event onUpdate
  68:.\source\rte/sc_joystick.h ****      */
  69:.\source\rte/sc_joystick.h ****     EventMaskType const evOnUpdate;
  70:.\source\rte/sc_joystick.h ****     
  71:.\source\rte/sc_joystick.h ****     
  72:.\source\rte/sc_joystick.h ****     /**
  73:.\source\rte/sc_joystick.h ****      * Event onError
  74:.\source\rte/sc_joystick.h ****      */
  75:.\source\rte/sc_joystick.h ****     EventMaskType const evOnError;
  76:.\source\rte/sc_joystick.h ****     
  77:.\source\rte/sc_joystick.h ****     /**
  78:.\source\rte/sc_joystick.h ****      * Task Count onUpdate
  79:.\source\rte/sc_joystick.h ****      */
  80:.\source\rte/sc_joystick.h ****     size_t const onUpdateTaskCount;
  81:.\source\rte/sc_joystick.h **** 
  82:.\source\rte/sc_joystick.h ****     /**
  83:.\source\rte/sc_joystick.h ****      * Task List onUpdate
  84:.\source\rte/sc_joystick.h ****      */
ARM GAS  C:\Users\saman\AppData\Local\Temp\ccfvMB7E.s 			page 4


  85:.\source\rte/sc_joystick.h ****     TaskTypeArray* const onUpdateTasks;
  86:.\source\rte/sc_joystick.h ****     
  87:.\source\rte/sc_joystick.h ****     /**
  88:.\source\rte/sc_joystick.h ****      * Task Count onError
  89:.\source\rte/sc_joystick.h ****      */
  90:.\source\rte/sc_joystick.h ****     size_t const onErrorTaskCount;
  91:.\source\rte/sc_joystick.h **** 
  92:.\source\rte/sc_joystick.h ****     /**
  93:.\source\rte/sc_joystick.h ****      * Task List onError
  94:.\source\rte/sc_joystick.h ****      */
  95:.\source\rte/sc_joystick.h ****     TaskTypeArray* const onErrorTasks;
  96:.\source\rte/sc_joystick.h **** 	
  97:.\source\rte/sc_joystick.h **** 	
  98:.\source\rte/sc_joystick.h **** 	/**
  99:.\source\rte/sc_joystick.h **** 	 * Ressourse is active? We need an additional boolean as a ressource value 0 is valid.
 100:.\source\rte/sc_joystick.h **** 	 */
 101:.\source\rte/sc_joystick.h **** 	 boolean_t const resourceActive;
 102:.\source\rte/sc_joystick.h **** 	 
 103:.\source\rte/sc_joystick.h **** 	/**
 104:.\source\rte/sc_joystick.h **** 	 * Ressourse 
 105:.\source\rte/sc_joystick.h **** 	 */
 106:.\source\rte/sc_joystick.h **** 	 ResourceType const resource;
 107:.\source\rte/sc_joystick.h **** 
 108:.\source\rte/sc_joystick.h **** };                                                                                                 
 109:.\source\rte/sc_joystick.h **** typedef const struct SC_JOYSTICK_cfg_s SC_JOYSTICK_cfg_t;
 110:.\source\rte/sc_joystick.h ****                               
 111:.\source\rte/sc_joystick.h **** /**************************************************************************************************
 112:.\source\rte/sc_joystick.h **** /* The data interface block																							*/
 113:.\source\rte/sc_joystick.h **** /**************************************************************************************************
 114:.\source\rte/sc_joystick.h **** 
 115:.\source\rte/sc_joystick.h ****                                                                                                    
 116:.\source\rte/sc_joystick.h **** 							  
 117:.\source\rte/sc_joystick.h **** /**
 118:.\source\rte/sc_joystick.h ****  * Instances of the struct SC_JOYSTICK_t represent the signal objects.
 119:.\source\rte/sc_joystick.h ****  * A signal object contains the current application value 'value' as well as relevant meta data.
 120:.\source\rte/sc_joystick.h ****  */
 121:.\source\rte/sc_joystick.h **** struct SC_JOYSTICK_s
 122:.\source\rte/sc_joystick.h **** {                                                                                                  
 123:.\source\rte/sc_joystick.h **** 
 124:.\source\rte/sc_joystick.h **** 	/**
 125:.\source\rte/sc_joystick.h **** 	 * Data buffer for the application value
 126:.\source\rte/sc_joystick.h **** 	 */
 127:.\source\rte/sc_joystick.h ****     SC_JOYSTICK_data_t value;
 128:.\source\rte/sc_joystick.h **** 
 129:.\source\rte/sc_joystick.h ****     /**
 130:.\source\rte/sc_joystick.h ****      * Current signal status
 131:.\source\rte/sc_joystick.h ****      */
 132:.\source\rte/sc_joystick.h ****     RTE_signalStatus_t status;
 133:.\source\rte/sc_joystick.h **** 
 134:.\source\rte/sc_joystick.h ****     /**
 135:.\source\rte/sc_joystick.h ****      * Current age of the signal (in calling cycles)
 136:.\source\rte/sc_joystick.h ****      */
 137:.\source\rte/sc_joystick.h ****     uint32_t age;
 138:.\source\rte/sc_joystick.h **** 
 139:.\source\rte/sc_joystick.h ****     /**
 140:.\source\rte/sc_joystick.h ****      * Pointer to the signal configuration
 141:.\source\rte/sc_joystick.h ****      */
ARM GAS  C:\Users\saman\AppData\Local\Temp\ccfvMB7E.s 			page 5


 142:.\source\rte/sc_joystick.h **** 	const SC_JOYSTICK_cfg_t * const    pSigCfg;
 143:.\source\rte/sc_joystick.h **** 
 144:.\source\rte/sc_joystick.h **** };                                                                                                 
 145:.\source\rte/sc_joystick.h **** typedef struct SC_JOYSTICK_s SC_JOYSTICK_t;
 146:.\source\rte/sc_joystick.h **** 
 147:.\source\rte/sc_joystick.h **** /**************************************************************************************************
 148:.\source\rte/sc_joystick.h **** /* Signal initialisation   																							*/
 149:.\source\rte/sc_joystick.h **** /**************************************************************************************************
 150:.\source\rte/sc_joystick.h **** 
 151:.\source\rte/sc_joystick.h **** /**
 152:.\source\rte/sc_joystick.h ****  * Initializes a signal instance with a passed init value.
 153:.\source\rte/sc_joystick.h ****  * Depending on the configured conversion or scaling function the raw_value will be calculated.
 154:.\source\rte/sc_joystick.h ****  * Signal status will change from RTE_SIGNALSTATUS_STARTUP to RTE_SIGNALSTATUS_INITIALIZED.
 155:.\source\rte/sc_joystick.h ****  *
 156:.\source\rte/sc_joystick.h ****  * @param  SC_JOYSTICK_t * const signal: Pointer to the signal object which will be initialised
 157:.\source\rte/sc_joystick.h ****  * @return RC_t: standard return code, currently only RC_SUCCESS
 158:.\source\rte/sc_joystick.h ****  *
 159:.\source\rte/sc_joystick.h ****  **/
 160:.\source\rte/sc_joystick.h **** inline RC_t RTE_SC_JOYSTICK_init( SC_JOYSTICK_t * const signal )
 161:.\source\rte/sc_joystick.h **** {                                                                                                  
 162:.\source\rte/sc_joystick.h **** 
 163:.\source\rte/sc_joystick.h ****    RC_t ret = RC_SUCCESS;
 164:.\source\rte/sc_joystick.h **** 
 165:.\source\rte/sc_joystick.h ****    //Set value and raw value
 166:.\source\rte/sc_joystick.h ****    signal->value  = SC_JOYSTICK_INIT_DATA;
 167:.\source\rte/sc_joystick.h ****    signal->age    = 0;
 168:.\source\rte/sc_joystick.h ****    signal->status = RTE_SIGNALSTATUS_INITIALIZED;
 169:.\source\rte/sc_joystick.h **** 
 170:.\source\rte/sc_joystick.h ****    return ret;
 171:.\source\rte/sc_joystick.h **** }
 172:.\source\rte/sc_joystick.h **** 
 173:.\source\rte/sc_joystick.h **** /**************************************************************************************************
 174:.\source\rte/sc_joystick.h **** /* Status and timeout control																						*/
 175:.\source\rte/sc_joystick.h **** /**************************************************************************************************
 176:.\source\rte/sc_joystick.h **** 
 177:.\source\rte/sc_joystick.h **** /**
 178:.\source\rte/sc_joystick.h ****  *  Returns the current signal status of the passed signal instance.
 179:.\source\rte/sc_joystick.h ****  *
 180:.\source\rte/sc_joystick.h ****  * @param  SC_JOYSTICK_t * const signal: Pointer to the signal object
 181:.\source\rte/sc_joystick.h ****  * @return  sig_status_t: The current signal status
 182:.\source\rte/sc_joystick.h ****  *
 183:.\source\rte/sc_joystick.h ****  **/
 184:.\source\rte/sc_joystick.h **** inline RTE_signalStatus_t RTE_SC_JOYSTICK_getStatus( const SC_JOYSTICK_t * const signal )
 185:.\source\rte/sc_joystick.h **** {
 186:.\source\rte/sc_joystick.h ****    return signal->status;
 187:.\source\rte/sc_joystick.h **** }
 188:.\source\rte/sc_joystick.h **** 
 189:.\source\rte/sc_joystick.h **** 
 190:.\source\rte/sc_joystick.h **** /**
 191:.\source\rte/sc_joystick.h ****  *  Sets a new signal status of the passed signal instance by passing the new status.
 192:.\source\rte/sc_joystick.h ****  *
 193:.\source\rte/sc_joystick.h ****  * @param  SC_JOYSTICK_t * const signal: Pointer to the signal object
 194:.\source\rte/sc_joystick.h ****  * @param  const sig_status_t status: New signal status
 195:.\source\rte/sc_joystick.h ****  * @return RC_t: standard return code, currently only RC_SUCCESS
 196:.\source\rte/sc_joystick.h ****  *
 197:.\source\rte/sc_joystick.h ****  */
 198:.\source\rte/sc_joystick.h **** inline RC_t RTE_SC_JOYSTICK_setStatus( SC_JOYSTICK_t * const signal, const RTE_signalStatus_t statu
ARM GAS  C:\Users\saman\AppData\Local\Temp\ccfvMB7E.s 			page 6


 199:.\source\rte/sc_joystick.h **** {
 200:.\source\rte/sc_joystick.h ****    signal->status = status;
 201:.\source\rte/sc_joystick.h ****    size_t taskNum=0;
 202:.\source\rte/sc_joystick.h ****    
 203:.\source\rte/sc_joystick.h ****    //Fire error events in case of invalid state
 204:.\source\rte/sc_joystick.h ****    if (signal->status == RTE_SIGNALSTATUS_INVALID)
 205:.\source\rte/sc_joystick.h ****    {
 206:.\source\rte/sc_joystick.h **** 	    //Pointer to the Taskarray, containing the tasks receiving the onUpdate events
 207:.\source\rte/sc_joystick.h **** 		TaskTypeArray* pTaskArray = signal->pSigCfg->onErrorTasks;
 208:.\source\rte/sc_joystick.h **** 
 209:.\source\rte/sc_joystick.h **** 		if (0 != signal->pSigCfg->evOnError && NULL != pTaskArray){
 210:.\source\rte/sc_joystick.h **** 			for( taskNum=0 ; taskNum < signal->pSigCfg->onErrorTaskCount ;taskNum++){
 211:.\source\rte/sc_joystick.h **** 				TaskType task = (*pTaskArray)[taskNum];
 212:.\source\rte/sc_joystick.h **** 				SetEvent( task, signal->pSigCfg->evOnError);
 213:.\source\rte/sc_joystick.h **** 			}
 214:.\source\rte/sc_joystick.h **** 		}
 215:.\source\rte/sc_joystick.h ****    }
 216:.\source\rte/sc_joystick.h ****    
 217:.\source\rte/sc_joystick.h ****    return RC_SUCCESS;
 218:.\source\rte/sc_joystick.h **** }
 219:.\source\rte/sc_joystick.h **** 
 220:.\source\rte/sc_joystick.h **** 
 221:.\source\rte/sc_joystick.h **** /**
 222:.\source\rte/sc_joystick.h ****  * Returns the count of refreshing trials (refresh, set or set_raw) that failed.
 223:.\source\rte/sc_joystick.h ****  * Prerquisite: The signal is refreshed cyclically
 224:.\source\rte/sc_joystick.h ****  *
 225:.\source\rte/sc_joystick.h ****  * @param  SC_JOYSTICK_t * const signal: Pointer to the signal object
 226:.\source\rte/sc_joystick.h ****  * @return uint32_t: Number of cycles since the signal has been updated for the last time
 227:.\source\rte/sc_joystick.h ****  */
 228:.\source\rte/sc_joystick.h **** inline uint32_t RTE_SC_JOYSTICK_getAge( const SC_JOYSTICK_t * const signal )
 229:.\source\rte/sc_joystick.h **** {
 230:.\source\rte/sc_joystick.h ****    return signal->age;
 231:.\source\rte/sc_joystick.h **** }
 232:.\source\rte/sc_joystick.h **** 
 233:.\source\rte/sc_joystick.h **** /**
 234:.\source\rte/sc_joystick.h ****  * Should be called by application or driver if no new value can be provided.
 235:.\source\rte/sc_joystick.h ****  * @param  SC_JOYSTICK_t * const signal: Pointer to the signal object
 236:.\source\rte/sc_joystick.h ****  * @param uint32_t increment: incrementvalue, typically in [ms]
 237:.\source\rte/sc_joystick.h ****  * @return void
 238:.\source\rte/sc_joystick.h ****  */
 239:.\source\rte/sc_joystick.h **** inline void RTE_SC_JOYSTICK_incAge(  SC_JOYSTICK_t * const signal , uint32_t increment)
 240:.\source\rte/sc_joystick.h **** {
 241:.\source\rte/sc_joystick.h **** 	   //Hack....
 242:.\source\rte/sc_joystick.h **** 	   if ( 0xFFFF0000 > (signal->age + increment) )
 243:.\source\rte/sc_joystick.h **** 	   {
 244:.\source\rte/sc_joystick.h **** 	      signal->age += increment;
 245:.\source\rte/sc_joystick.h **** 	   }
 246:.\source\rte/sc_joystick.h **** }
 247:.\source\rte/sc_joystick.h **** 
 248:.\source\rte/sc_joystick.h **** 
 249:.\source\rte/sc_joystick.h **** /**************************************************************************************************
 250:.\source\rte/sc_joystick.h **** /* Application Data read/write Interface																			*/
 251:.\source\rte/sc_joystick.h **** /**************************************************************************************************
 252:.\source\rte/sc_joystick.h **** 
 253:.\source\rte/sc_joystick.h **** /**
 254:.\source\rte/sc_joystick.h ****  * Returns the current application value as pointer to the signal payload.
 255:.\source\rte/sc_joystick.h ****  * Careful: This is not threadsafe!!!
ARM GAS  C:\Users\saman\AppData\Local\Temp\ccfvMB7E.s 			page 7


 256:.\source\rte/sc_joystick.h ****  *
 257:.\source\rte/sc_joystick.h ****  * @param  SC_JOYSTICK_t * const signal: Pointer to the signal object
 258:.\source\rte/sc_joystick.h ****  * @return sc_joystick_data_t*: pointer to the current value of the application data buffer
 259:.\source\rte/sc_joystick.h ****  *
 260:.\source\rte/sc_joystick.h ****  **/
 261:.\source\rte/sc_joystick.h **** inline SC_JOYSTICK_data_t* RTE_SC_JOYSTICK_getPtr( SC_JOYSTICK_t * const signal )
 262:.\source\rte/sc_joystick.h **** {               
 263:.\source\rte/sc_joystick.h ****    //Todo: Critical region cannot be protected using return values																						
 264:.\source\rte/sc_joystick.h ****    return &(signal->value);                                                                        
 265:.\source\rte/sc_joystick.h **** }
 266:.\source\rte/sc_joystick.h **** 
 267:.\source\rte/sc_joystick.h **** /**
 268:.\source\rte/sc_joystick.h ****  * Returns the current application value of the passed signal instance.
 269:.\source\rte/sc_joystick.h ****  *
 270:.\source\rte/sc_joystick.h ****  * @param  SC_JOYSTICK_t * const signal: Pointer to the signal object
 271:.\source\rte/sc_joystick.h ****  * @return sc_joystick_data_t: current value of the application data buffer
 272:.\source\rte/sc_joystick.h ****  *
 273:.\source\rte/sc_joystick.h ****  **/
 274:.\source\rte/sc_joystick.h **** inline SC_JOYSTICK_data_t RTE_SC_JOYSTICK_get( const SC_JOYSTICK_t * const signal )
 275:.\source\rte/sc_joystick.h **** {               
 276:.\source\rte/sc_joystick.h ****    //Todo: Critical region cannot be protected using return values																						
 277:.\source\rte/sc_joystick.h ****    return signal->value;                                                                           
 278:.\source\rte/sc_joystick.h **** }                                                                                                  
 279:.\source\rte/sc_joystick.h ****                                                                                                    
 280:.\source\rte/sc_joystick.h **** /**
 281:.\source\rte/sc_joystick.h ****  * Returns the current application value of the passed signal instance threadsafe.
 282:.\source\rte/sc_joystick.h ****  *
 283:.\source\rte/sc_joystick.h ****  * @param  SC_JOYSTICK_t * const signal: Pointer to the signal object
 284:.\source\rte/sc_joystick.h ****  * @param  SC_JOYSTICK_data_t* data: Pointer to the return data Pointer to the signal object
 285:.\source\rte/sc_joystick.h ****  * @return RC_SUCCESS
 286:.\source\rte/sc_joystick.h ****  *
 287:.\source\rte/sc_joystick.h ****  **/
 288:.\source\rte/sc_joystick.h **** inline RC_t RTE_SC_JOYSTICK_getThreadSafe( const SC_JOYSTICK_t * const signal, SC_JOYSTICK_data_t *
 289:.\source\rte/sc_joystick.h **** {    
 290:.\source\rte/sc_joystick.h ****    if (TRUE == signal->pSigCfg->resourceActive) GetResource(signal->pSigCfg->resource);
 291:.\source\rte/sc_joystick.h ****    *data = signal->value;
 292:.\source\rte/sc_joystick.h ****    if (TRUE == signal->pSigCfg->resourceActive) ReleaseResource(signal->pSigCfg->resource);        
 293:.\source\rte/sc_joystick.h **** 
 294:.\source\rte/sc_joystick.h ****    return RC_SUCCESS;                                                                   
 295:.\source\rte/sc_joystick.h ****    
 296:.\source\rte/sc_joystick.h **** }                                                                                                  
 297:.\source\rte/sc_joystick.h ****                                                                                                    
 298:.\source\rte/sc_joystick.h **** /**
 299:.\source\rte/sc_joystick.h ****  * Sets a new application value to the passed signal instance by passing the new value.
 300:.\source\rte/sc_joystick.h ****  * The corresponding driver raw value will be calculated immediately by using the default conversio
 301:.\source\rte/sc_joystick.h ****  * signal specific scaling function.
 302:.\source\rte/sc_joystick.h ****  * The signal age will be set to 0 and the new status will be 'RTE_SIGNALSTATUS_VALID'.
 303:.\source\rte/sc_joystick.h ****  *
 304:.\source\rte/sc_joystick.h ****  * @param  SC_JOYSTICK_t * const signal: Pointer to the signal object
 305:.\source\rte/sc_joystick.h ****  * @param  sc_joystick_data_t const value: value for the application data buffer
 306:.\source\rte/sc_joystick.h ****  * @return RC_t: standard return code, currently only RC_SUCCESS
 307:.\source\rte/sc_joystick.h ****  *
 308:.\source\rte/sc_joystick.h ****  **/
 309:.\source\rte/sc_joystick.h **** inline RC_t RTE_SC_JOYSTICK_set(SC_JOYSTICK_t * const signal, const SC_JOYSTICK_data_t value  )
 310:.\source\rte/sc_joystick.h **** {
 311:.\source\rte/sc_joystick.h **** 
 312:.\source\rte/sc_joystick.h ****    RC_t ret = RC_SUCCESS;
ARM GAS  C:\Users\saman\AppData\Local\Temp\ccfvMB7E.s 			page 8


 313:.\source\rte/sc_joystick.h ****    size_t taskNum=0;
 314:.\source\rte/sc_joystick.h **** 
 315:.\source\rte/sc_joystick.h **** 
 316:.\source\rte/sc_joystick.h ****    if (TRUE == signal->pSigCfg->resourceActive) GetResource(signal->pSigCfg->resource);
 317:.\source\rte/sc_joystick.h ****    signal->value  = value;
 318:.\source\rte/sc_joystick.h ****    signal->age    = 0;
 319:.\source\rte/sc_joystick.h ****    signal->status = RTE_SIGNALSTATUS_VALID;
 320:.\source\rte/sc_joystick.h ****    if (TRUE == signal->pSigCfg->resourceActive) ReleaseResource(signal->pSigCfg->resource);
 321:.\source\rte/sc_joystick.h **** 
 322:.\source\rte/sc_joystick.h ****    //Pointer to the Taskarray, containing the tasks receiving the onUpdate events
 323:.\source\rte/sc_joystick.h ****    TaskTypeArray* pTaskArray = signal->pSigCfg->onUpdateTasks;
 324:.\source\rte/sc_joystick.h **** 
 325:.\source\rte/sc_joystick.h ****    if (0 != signal->pSigCfg->evOnUpdate && NULL != pTaskArray){
 326:.\source\rte/sc_joystick.h ****       for( taskNum=0 ; taskNum < signal->pSigCfg->onUpdateTaskCount ;taskNum++){
 327:.\source\rte/sc_joystick.h **** 		  
 328:.\source\rte/sc_joystick.h ****           TaskType task = (*pTaskArray)[taskNum];
 329:.\source\rte/sc_joystick.h **** 	      SetEvent( task, signal->pSigCfg->evOnUpdate);
 330:.\source\rte/sc_joystick.h ****       }
 331:.\source\rte/sc_joystick.h ****    }
 332:.\source\rte/sc_joystick.h **** 
 333:.\source\rte/sc_joystick.h ****    return ret;
 334:.\source\rte/sc_joystick.h **** }                                                                                                  
 335:.\source\rte/sc_joystick.h ****                                                                                                    
 336:.\source\rte/sc_joystick.h ****                                                                                                    
 337:.\source\rte/sc_joystick.h **** /**************************************************************************************************
 338:.\source\rte/sc_joystick.h **** /* Call functions to the connected drivers																			*/
 339:.\source\rte/sc_joystick.h **** /**************************************************************************************************
 340:.\source\rte/sc_joystick.h **** 
 341:.\source\rte/sc_joystick.h ****                                                                                                    
 342:.\source\rte/sc_joystick.h **** /**
 343:.\source\rte/sc_joystick.h ****  *  Calls the connected driver interface to get a new value.
 344:.\source\rte/sc_joystick.h ****  *
 345:.\source\rte/sc_joystick.h ****  * @param SC_JOYSTICK_t * const signal: Pointer to the signal object
 346:.\source\rte/sc_joystick.h ****  * @return  RC_t: Return value of the driver call
 347:.\source\rte/sc_joystick.h ****  *
 348:.\source\rte/sc_joystick.h ****  */
 349:.\source\rte/sc_joystick.h **** inline RC_t RTE_SC_JOYSTICK_pullPort( SC_JOYSTICK_t * const signal )
 350:.\source\rte/sc_joystick.h **** {                                                                                                  
 351:.\source\rte/sc_joystick.h ****    RC_t ret = RC_SUCCESS;
 352:.\source\rte/sc_joystick.h **** 
 353:.\source\rte/sc_joystick.h ****                                                                                                    
 354:.\source\rte/sc_joystick.h ****    if ( NULL != signal->pSigCfg->inDriver )
  44              		.loc 2 354 0
  45 0004 224B     		ldr	r3, .L12
  46 0006 9B68     		ldr	r3, [r3, #8]
  47 0008 1A68     		ldr	r2, [r3]
  48 000a 002A     		cmp	r2, #0
  49 000c 3BD0     		beq	.L2
  50              	.LBB22:
 355:.\source\rte/sc_joystick.h ****    {
 356:.\source\rte/sc_joystick.h **** 	  SC_JOYSTICK_data_t value = signal->value;
  51              		.loc 2 356 0
  52 000e 204A     		ldr	r2, .L12
  53 0010 1288     		ldrh	r2, [r2]
  54 0012 02A8     		add	r0, sp, #8
  55              	.LVL2:
  56 0014 20F8082D 		strh	r2, [r0, #-8]!	@ movhi
ARM GAS  C:\Users\saman\AppData\Local\Temp\ccfvMB7E.s 			page 9


 357:.\source\rte/sc_joystick.h ****       ret = signal->pSigCfg->inDriver(&value);
  57              		.loc 2 357 0
  58 0018 1B68     		ldr	r3, [r3]
  59 001a 9847     		blx	r3
  60              	.LVL3:
 358:.\source\rte/sc_joystick.h ****                                                                                                    
 359:.\source\rte/sc_joystick.h ****       if ( ret == RC_SUCCESS )                                                                     
  61              		.loc 2 359 0
  62 001c E8B9     		cbnz	r0, .L3
  63              	.LVL4:
  64 001e BDF80010 		ldrh	r1, [sp]
  65 0022 ADF80410 		strh	r1, [sp, #4]	@ movhi
  66              	.LVL5:
  67              	.LBB23:
  68              	.LBB24:
 316:.\source\rte/sc_joystick.h ****    signal->value  = value;
  69              		.loc 2 316 0
  70 0026 1A4B     		ldr	r3, .L12
  71 0028 9A68     		ldr	r2, [r3, #8]
 317:.\source\rte/sc_joystick.h ****    signal->age    = 0;
  72              		.loc 2 317 0
  73 002a 1980     		strh	r1, [r3]	@ movhi
 318:.\source\rte/sc_joystick.h ****    signal->status = RTE_SIGNALSTATUS_VALID;
  74              		.loc 2 318 0
  75 002c 0021     		movs	r1, #0
  76 002e 5960     		str	r1, [r3, #4]
 319:.\source\rte/sc_joystick.h ****    if (TRUE == signal->pSigCfg->resourceActive) ReleaseResource(signal->pSigCfg->resource);
  77              		.loc 2 319 0
  78 0030 0221     		movs	r1, #2
  79 0032 9970     		strb	r1, [r3, #2]
 323:.\source\rte/sc_joystick.h **** 
  80              		.loc 2 323 0
  81 0034 5569     		ldr	r5, [r2, #20]
  82              	.LVL6:
 325:.\source\rte/sc_joystick.h ****       for( taskNum=0 ; taskNum < signal->pSigCfg->onUpdateTaskCount ;taskNum++){
  83              		.loc 2 325 0
  84 0036 9368     		ldr	r3, [r2, #8]
  85 0038 2BB3     		cbz	r3, .L2
  86 003a 3DB9     		cbnz	r5, .L9
  87 003c 23E0     		b	.L2
  88              	.LVL7:
  89              	.L6:
  90              	.LBB25:
 329:.\source\rte/sc_joystick.h ****       }
  91              		.loc 2 329 0
  92 003e 9968     		ldr	r1, [r3, #8]
  93 0040 55F82400 		ldr	r0, [r5, r4, lsl #2]
  94 0044 FFF7FEFF 		bl	EE_oo_SetEvent
  95              	.LVL8:
  96              	.LBE25:
 326:.\source\rte/sc_joystick.h **** 		  
  97              		.loc 2 326 0
  98 0048 0134     		adds	r4, r4, #1
  99              	.LVL9:
 100 004a 00E0     		b	.L5
 101              	.LVL10:
 102              	.L9:
ARM GAS  C:\Users\saman\AppData\Local\Temp\ccfvMB7E.s 			page 10


 325:.\source\rte/sc_joystick.h ****       for( taskNum=0 ; taskNum < signal->pSigCfg->onUpdateTaskCount ;taskNum++){
 103              		.loc 2 325 0
 104 004c 0024     		movs	r4, #0
 105              	.LVL11:
 106              	.L5:
 326:.\source\rte/sc_joystick.h **** 		  
 107              		.loc 2 326 0
 108 004e 104B     		ldr	r3, .L12
 109 0050 9B68     		ldr	r3, [r3, #8]
 110 0052 1A69     		ldr	r2, [r3, #16]
 111 0054 9442     		cmp	r4, r2
 112 0056 F2D3     		bcc	.L6
 113 0058 15E0     		b	.L2
 114              	.LVL12:
 115              	.L3:
 116              	.LBE24:
 117              	.LBE23:
 118              	.LBB26:
 119              	.LBB27:
 200:.\source\rte/sc_joystick.h ****    size_t taskNum=0;
 120              		.loc 2 200 0
 121 005a 0D4B     		ldr	r3, .L12
 122 005c 0322     		movs	r2, #3
 123 005e 9A70     		strb	r2, [r3, #2]
 124              	.LVL13:
 125              	.LBB28:
 207:.\source\rte/sc_joystick.h **** 
 126              		.loc 2 207 0
 127 0060 9B68     		ldr	r3, [r3, #8]
 128 0062 DD69     		ldr	r5, [r3, #28]
 129              	.LVL14:
 209:.\source\rte/sc_joystick.h **** 			for( taskNum=0 ; taskNum < signal->pSigCfg->onErrorTaskCount ;taskNum++){
 130              		.loc 2 209 0
 131 0064 DB68     		ldr	r3, [r3, #12]
 132 0066 73B1     		cbz	r3, .L2
 133 0068 3DB9     		cbnz	r5, .L10
 134 006a 0CE0     		b	.L2
 135              	.LVL15:
 136              	.L8:
 137              	.LBB29:
 212:.\source\rte/sc_joystick.h **** 			}
 138              		.loc 2 212 0
 139 006c D968     		ldr	r1, [r3, #12]
 140 006e 55F82400 		ldr	r0, [r5, r4, lsl #2]
 141 0072 FFF7FEFF 		bl	EE_oo_SetEvent
 142              	.LVL16:
 143              	.LBE29:
 210:.\source\rte/sc_joystick.h **** 				TaskType task = (*pTaskArray)[taskNum];
 144              		.loc 2 210 0
 145 0076 0134     		adds	r4, r4, #1
 146              	.LVL17:
 147 0078 00E0     		b	.L7
 148              	.LVL18:
 149              	.L10:
 209:.\source\rte/sc_joystick.h **** 			for( taskNum=0 ; taskNum < signal->pSigCfg->onErrorTaskCount ;taskNum++){
 150              		.loc 2 209 0
 151 007a 0024     		movs	r4, #0
ARM GAS  C:\Users\saman\AppData\Local\Temp\ccfvMB7E.s 			page 11


 152              	.LVL19:
 153              	.L7:
 210:.\source\rte/sc_joystick.h **** 				TaskType task = (*pTaskArray)[taskNum];
 154              		.loc 2 210 0
 155 007c 044B     		ldr	r3, .L12
 156 007e 9B68     		ldr	r3, [r3, #8]
 157 0080 9A69     		ldr	r2, [r3, #24]
 158 0082 9442     		cmp	r4, r2
 159 0084 F2D3     		bcc	.L8
 160              	.LVL20:
 161              	.L2:
 162              	.LBE28:
 163              	.LBE27:
 164              	.LBE26:
 165              	.LBE22:
 166              	.LBE21:
 167              	.LBE20:
  45:source\asw/swc_joystick.c **** 	
  46:source\asw/swc_joystick.c **** 	/* USER CODE START JOYSTICK_joystick_rx_run */
  47:source\asw/swc_joystick.c ****     
  48:source\asw/swc_joystick.c ****     RTE_SC_JOYSTICK_pullPort(&SO_JOYSTICK_signal);
  49:source\asw/swc_joystick.c ****     WD_Alive(joystick_run);
 168              		.loc 1 49 0
 169 0086 0020     		movs	r0, #0
 170 0088 FFF7FEFF 		bl	WD_Alive
 171              	.LVL21:
  50:source\asw/swc_joystick.c ****     /* USER CODE END JOYSTICK_joystick_rx_run */
  51:source\asw/swc_joystick.c **** }
 172              		.loc 1 51 0
 173 008c 03B0     		add	sp, sp, #12
 174              		.cfi_def_cfa_offset 12
 175              		@ sp needed
 176 008e 30BD     		pop	{r4, r5, pc}
 177              	.L13:
 178              		.align	2
 179              	.L12:
 180 0090 00000000 		.word	SO_JOYSTICK_signal
 181              		.cfi_endproc
 182              	.LFE154:
 183              		.size	JOYSTICK_joystick_rx_run, .-JOYSTICK_joystick_rx_run
 184              		.text
 185              	.Letext0:
 186              		.file 3 "c:\\program files (x86)\\cypress\\psoc creator\\4.4\\psoc creator\\import\\gnu\\arm\\5.4.
 187              		.file 4 "c:\\program files (x86)\\cypress\\psoc creator\\4.4\\psoc creator\\import\\gnu\\arm\\5.4.
 188              		.file 5 "c:\\program files (x86)\\cypress\\psoc creator\\4.4\\psoc creator\\import\\gnu\\arm\\5.4.
 189              		.file 6 "Generated_Source\\PSoC5/ErikaOS_1_common_ee_types.inc"
 190              		.file 7 "Generated_Source\\PSoC5/ErikaOS_1_cortex_mx_ee_cpu.inc"
 191              		.file 8 "Generated_Source\\PSoC5/ErikaOS_1_ee_oo_common.inc"
 192              		.file 9 ".\\source\\bsw/global.h"
 193              		.file 10 ".\\source\\rte/rte_types.h"
 194              		.file 11 ".\\source\\rte/rte.h"
 195              		.file 12 ".\\source\\rte/sc_joystick_type.h"
 196              		.file 13 "Generated_Source\\PSoC5/ErikaOS_1_ee_oo_intfunc.inc"
 197              		.file 14 "Generated_Source\\PSoC5/ErikaOS_1_cortex_mx_ee_context.inc"
 198              		.file 15 "Generated_Source\\PSoC5/ErikaOS_1_common_ee_primitives.inc"
 199              		.file 16 "Generated_Source\\PSoC5/core_cm3.h"
 200              		.file 17 ".\\source\\rte/sp_common.h"
ARM GAS  C:\Users\saman\AppData\Local\Temp\ccfvMB7E.s 			page 12


 201              		.file 18 "Generated_Source\\PSoC5/ErikaOS_1_ee_oo_kernel.inc"
 202              		.file 19 "./watchdog.h"